Archive member included because of file (symbol)

build/sky/contiki-ng-sky.a(uart1-putchar.o)
                              build/sky/obj/contiki-main.o (putchar)
build/sky/contiki-ng-sky.a(platform.o)
                              build/sky/obj/contiki-main.o (platform_init_stage_one)
build/sky/contiki-ng-sky.a(msp430.o)
                              build/sky/contiki-ng-sky.a(platform.o) (msp430_dco_required)
build/sky/contiki-ng-sky.a(clock.o)
                              build/sky/obj/contiki-main.o (clock_init)
build/sky/contiki-ng-sky.a(leds.o)
                              build/sky/contiki-ng-sky.a(platform.o) (leds_init)
build/sky/contiki-ng-sky.a(leds-arch.o)
                              build/sky/contiki-ng-sky.a(leds.o) (leds_arch_init)
build/sky/contiki-ng-sky.a(watchdog.o)
                              build/sky/obj/contiki-main.o (watchdog_start)
build/sky/contiki-ng-sky.a(rpl-border-rout)
                              build/sky/obj/contiki-main.o (rpl_border_router_init)
build/sky/contiki-ng-sky.a(autostart.o)
                              build/sky/obj/contiki-main.o (autostart_start)
build/sky/contiki-ng-sky.a(ctimer.o)
                              build/sky/obj/contiki-main.o (ctimer_init)
build/sky/contiki-ng-sky.a(log.o)
                              build/sky/obj/contiki-main.o (log_6addr)
build/sky/contiki-ng-sky.a(energest.o)
                              build/sky/obj/contiki-main.o (energest_init)
build/sky/contiki-ng-sky.a(etimer.o)
                              build/sky/contiki-ng-sky.a(clock.o) (etimer_request_poll)
build/sky/contiki-ng-sky.a(node-id.o)
                              build/sky/obj/contiki-main.o (node_id_init)
build/sky/contiki-ng-sky.a(rtimer.o)
                              build/sky/obj/contiki-main.o (rtimer_init)
build/sky/contiki-ng-sky.a(process.o)
                              build/sky/contiki-ng-sky.a(ctimer.o) (process_current)
build/sky/contiki-ng-sky.a(timer.o)
                              build/sky/contiki-ng-sky.a(platform.o) (timer_set)
build/sky/contiki-ng-sky.a(list.o)
                              build/sky/contiki-ng-sky.a(ctimer.o) (list_init)
build/sky/contiki-ng-sky.a(random.o)
                              build/sky/contiki-ng-sky.a(platform.o) (random_init)
build/sky/contiki-ng-sky.a(queuebuf.o)
                              build/sky/obj/contiki-main.o (queuebuf_init)
build/sky/contiki-ng-sky.a(packetbuf.o)
                              build/sky/contiki-ng-sky.a(queuebuf.o) (packetbuf_copyto)
build/sky/contiki-ng-sky.a(netstack.o)
                              build/sky/obj/contiki-main.o (netstack_init)
build/sky/contiki-ng-sky.a(linkaddr.o)
                              build/sky/contiki-ng-sky.a(platform.o) (linkaddr_copy)
build/sky/contiki-ng-sky.a(csma.o)
                              build/sky/obj/contiki-main.o (csma_driver)
build/sky/contiki-ng-sky.a(csma-output.o)
                              build/sky/contiki-ng-sky.a(csma.o) (csma_output_packet)
build/sky/contiki-ng-sky.a(uip-ds6.o)
                              build/sky/contiki-ng-sky.a(rpl-border-rout) (uip_ds6_if)
build/sky/contiki-ng-sky.a(uip-ds6-route.o)
                              build/sky/contiki-ng-sky.a(uip-ds6.o) (uip_ds6_route_init)
build/sky/contiki-ng-sky.a(tcpip.o)
                              build/sky/obj/contiki-main.o (tcpip_process)
build/sky/contiki-ng-sky.a(uip6.o)
                              build/sky/contiki-ng-sky.a(tcpip.o) (uip_aligned_buf)
build/sky/contiki-ng-sky.a(uip-ds6-nbr.o)
                              build/sky/contiki-ng-sky.a(uip-ds6.o) (uip_ds6_neighbors_init)
build/sky/contiki-ng-sky.a(uip-nd6.o)
                              build/sky/contiki-ng-sky.a(uip6.o) (uip_nd6_init)
build/sky/contiki-ng-sky.a(sicslowpan.o)
                              build/sky/obj/contiki-main.o (sicslowpan_driver)
build/sky/contiki-ng-sky.a(uiplib.o)
                              build/sky/contiki-ng-sky.a(tcpip.o) (uiplib_ip6addrconv)
build/sky/contiki-ng-sky.a(rpl.o)
                              build/sky/obj/contiki-main.o (rpl_lite_driver)
build/sky/contiki-ng-sky.a(rpl-icmp6.o)
                              build/sky/contiki-ng-sky.a(rpl.o) (rpl_icmp6_init)
build/sky/contiki-ng-sky.a(rpl-dag-root.o)
                              build/sky/contiki-ng-sky.a(rpl.o) (rpl_dag_root_set_prefix)
build/sky/contiki-ng-sky.a(slip-bridge.o)
                              build/sky/contiki-ng-sky.a(tcpip.o) (rpl_interface)
build/sky/contiki-ng-sky.a(border-router-e)
                              build/sky/contiki-ng-sky.a(rpl-border-rout) (border_router_process)
build/sky/contiki-ng-sky.a(contiki-sky-pla)
                              build/sky/contiki-ng-sky.a(platform.o) (init_platform)
build/sky/contiki-ng-sky.a(button-sensor.o)
                              build/sky/contiki-ng-sky.a(border-router-e) (button_sensor)
build/sky/contiki-ng-sky.a(ds2411.o)
                              build/sky/contiki-ng-sky.a(platform.o) (ds2411_init)
build/sky/contiki-ng-sky.a(xmem.o)
                              build/sky/contiki-ng-sky.a(platform.o) (xmem_init)
build/sky/contiki-ng-sky.a(sensors.o)
                              build/sky/contiki-ng-sky.a(border-router-e) (sensors_event)
build/sky/contiki-ng-sky.a(cc2420.o)
                              build/sky/contiki-ng-sky.a(platform.o) (cc2420_set_pan_addr)
build/sky/contiki-ng-sky.a(cc2420-arch.o)
                              build/sky/contiki-ng-sky.a(cc2420.o) (cc2420_arch_init)
build/sky/contiki-ng-sky.a(uart1.o)
                              build/sky/contiki-ng-sky.a(platform.o) (uart1_active)
build/sky/contiki-ng-sky.a(slip_uart1.o)
                              build/sky/contiki-ng-sky.a(slip-bridge.o) (slip_arch_init)
build/sky/contiki-ng-sky.a(slip.o)
                              build/sky/contiki-ng-sky.a(slip-bridge.o) (slip_process)
build/sky/contiki-ng-sky.a(rtimer-arch.o)
                              build/sky/contiki-ng-sky.a(rtimer.o) (rtimer_arch_init)
build/sky/contiki-ng-sky.a(stimer.o)
                              build/sky/contiki-ng-sky.a(uip-ds6.o) (stimer_set)
build/sky/contiki-ng-sky.a(memb.o)
                              build/sky/contiki-ng-sky.a(queuebuf.o) (memb_init)
build/sky/contiki-ng-sky.a(nbr-table.o)
                              build/sky/contiki-ng-sky.a(uip-ds6-nbr.o) (nbr_table_register)
build/sky/contiki-ng-sky.a(link-stats.o)
                              build/sky/contiki-ng-sky.a(sicslowpan.o) (link_stats_packet_sent)
build/sky/contiki-ng-sky.a(mac-sequence.o)
                              build/sky/contiki-ng-sky.a(csma.o) (mac_sequence_is_duplicate)
build/sky/contiki-ng-sky.a(mac.o)
                              build/sky/contiki-ng-sky.a(csma-output.o) (mac_call_sent_callback)
build/sky/contiki-ng-sky.a(framer-802154.o)
                              build/sky/contiki-ng-sky.a(csma.o) (framer_802154)
build/sky/contiki-ng-sky.a(frame802154.o)
                              build/sky/contiki-ng-sky.a(framer-802154.o) (frame802154_get_pan_id)
build/sky/contiki-ng-sky.a(csma-security.o)
                              build/sky/contiki-ng-sky.a(csma-output.o) (csma_security_create_frame)
build/sky/contiki-ng-sky.a(uipbuf.o)
                              build/sky/contiki-ng-sky.a(uip6.o) (uipbuf_add_ext_hdr)
build/sky/contiki-ng-sky.a(uip-icmp6.o)
                              build/sky/contiki-ng-sky.a(uip6.o) (uip_icmp6_input)
build/sky/contiki-ng-sky.a(uip-sr.o)
                              build/sky/contiki-ng-sky.a(rpl-dag-root.o) (uip_sr_num_nodes)
build/sky/contiki-ng-sky.a(rpl-nbr-policy.)
                              build/sky/contiki-ng-sky.a(nbr-table.o) (rpl_nbr_policy_find_removable)
build/sky/contiki-ng-sky.a(rpl-neighbor.o)
                              build/sky/contiki-ng-sky.a(rpl.o) (rpl_neighbor_get_from_lladdr)
build/sky/contiki-ng-sky.a(rpl-dag.o)
                              build/sky/contiki-ng-sky.a(rpl.o) (curr_instance)
build/sky/contiki-ng-sky.a(rpl-timers.o)
                              build/sky/contiki-ng-sky.a(rpl-dag.o) (rpl_timers_schedule_periodic_dis)
build/sky/contiki-ng-sky.a(rpl-ext-header.)
                              build/sky/contiki-ng-sky.a(rpl.o) (rpl_ext_header_srh_get_next_hop)
build/sky/contiki-ng-sky.a(rpl-mrhof.o)
                              build/sky/contiki-ng-sky.a(rpl-dag.o) (rpl_mrhof)
build/sky/contiki-ng-sky.a(spi-legacy.o)
                              build/sky/contiki-ng-sky.a(xmem.o) (spi_init)
/opt/mspgcc/bin/../lib/gcc/msp430/4.7.3/mmpy-16/libgcc.a(_mulsi3.o)
                              build/sky/contiki-ng-sky.a(link-stats.o) (__mulsi3)
/opt/mspgcc/bin/../lib/gcc/msp430/4.7.3/mmpy-16/libgcc.a(_udivmod16.o)
                              build/sky/contiki-ng-sky.a(rpl-timers.o) (__umodhi3)
/opt/mspgcc/bin/../lib/gcc/msp430/4.7.3/mmpy-16/libgcc.a(_divmod16.o)
                              build/sky/contiki-ng-sky.a(sicslowpan.o) (__divhi3)
/opt/mspgcc/bin/../lib/gcc/msp430/4.7.3/mmpy-16/libgcc.a(_udivmod32.o)
                              build/sky/contiki-ng-sky.a(link-stats.o) (__udivsi3)
/opt/mspgcc/bin/../lib/gcc/msp430/4.7.3/mmpy-16/libgcc.a(_divmod32.o)
                              build/sky/contiki-ng-sky.a(link-stats.o) (__divsi3)
/opt/mspgcc/bin/../lib/gcc/msp430/4.7.3/../../../../msp430/lib/mmpy-16/libc.a(printf.o)
                              border-router.o (printf)
/opt/mspgcc/bin/../lib/gcc/msp430/4.7.3/../../../../msp430/lib/mmpy-16/libc.a(sprintf.o)
                              build/sky/contiki-ng-sky.a(log.o) (snprintf)
/opt/mspgcc/bin/../lib/gcc/msp430/4.7.3/../../../../msp430/lib/mmpy-16/libc.a(vuprintf.o)
                              /opt/mspgcc/bin/../lib/gcc/msp430/4.7.3/../../../../msp430/lib/mmpy-16/libc.a(printf.o) (vuprintf)
/opt/mspgcc/bin/../lib/gcc/msp430/4.7.3/../../../../msp430/lib/mmpy-16/libc.a(puts.o)
                              border-router.o (puts)
/opt/mspgcc/bin/../lib/gcc/msp430/4.7.3/../../../../msp430/lib/mmpy-16/libc.a(rand.o)
                              build/sky/contiki-ng-sky.a(random.o) (rand)
/opt/mspgcc/bin/../lib/gcc/msp430/4.7.3/../../../../msp430/lib/mmpy-16/libc.a(strcmp.o)
                              build/sky/contiki-ng-sky.a(log.o) (strcmp)
/opt/mspgcc/bin/../lib/gcc/msp430/4.7.3/../../../../msp430/lib/mmpy-16/libc.a(strncmp.o)
                              build/sky/contiki-ng-sky.a(sensors.o) (strncmp)
/opt/mspgcc/bin/../lib/gcc/msp430/4.7.3/../../../../msp430/lib/mmpy-16/libc.a(memcmp.o)
                              build/sky/contiki-ng-sky.a(linkaddr.o) (memcmp)
/opt/mspgcc/bin/../lib/gcc/msp430/4.7.3/../../../../msp430/lib/mmpy-16/libc.a(memcpy.o)
                              build/sky/obj/contiki-main.o (memcpy)
/opt/mspgcc/bin/../lib/gcc/msp430/4.7.3/../../../../msp430/lib/mmpy-16/libc.a(memmove.o)
                              build/sky/contiki-ng-sky.a(uip6.o) (memmove)
/opt/mspgcc/bin/../lib/gcc/msp430/4.7.3/../../../../msp430/lib/mmpy-16/libc.a(memset.o)
                              build/sky/contiki-ng-sky.a(platform.o) (memset)
/opt/mspgcc/bin/../lib/gcc/msp430/4.7.3/mmpy-16/libgcc.a(_udivmod64.o)
                              /opt/mspgcc/bin/../lib/gcc/msp430/4.7.3/../../../../msp430/lib/mmpy-16/libc.a(vuprintf.o) (__udivdi3)
/opt/mspgcc/bin/../lib/gcc/msp430/4.7.3/mmpy-16/libcrt0.a(_reset_vector__.o)
                              (_reset_vector__)
/opt/mspgcc/bin/../lib/gcc/msp430/4.7.3/mmpy-16/libcrt0.a(__watchdog_support.o)
                              /opt/mspgcc/bin/../lib/gcc/msp430/4.7.3/mmpy-16/libcrt0.a(_reset_vector__.o) (__watchdog_support)
/opt/mspgcc/bin/../lib/gcc/msp430/4.7.3/mmpy-16/libcrt0.a(__init_stack.o)
                              /opt/mspgcc/bin/../lib/gcc/msp430/4.7.3/mmpy-16/libcrt0.a(_reset_vector__.o) (__init_stack)
/opt/mspgcc/bin/../lib/gcc/msp430/4.7.3/mmpy-16/libcrt0.a(__low_level_init.o)
                              /opt/mspgcc/bin/../lib/gcc/msp430/4.7.3/mmpy-16/libcrt0.a(_reset_vector__.o) (__low_level_init)
/opt/mspgcc/bin/../lib/gcc/msp430/4.7.3/mmpy-16/libcrt0.a(_copy_data.o)
                              /opt/mspgcc/bin/../lib/gcc/msp430/4.7.3/mmpy-16/libcrt0.a(_reset_vector__.o) (__do_copy_data)
/opt/mspgcc/bin/../lib/gcc/msp430/4.7.3/mmpy-16/libcrt0.a(_clear_bss.o)
                              /opt/mspgcc/bin/../lib/gcc/msp430/4.7.3/mmpy-16/libcrt0.a(_reset_vector__.o) (__do_clear_bss)
/opt/mspgcc/bin/../lib/gcc/msp430/4.7.3/mmpy-16/libcrt0.a(__stop_progExec__.o)
                              /opt/mspgcc/bin/../lib/gcc/msp430/4.7.3/mmpy-16/libcrt0.a(_reset_vector__.o) (__stop_progExec__)
/opt/mspgcc/bin/../lib/gcc/msp430/4.7.3/mmpy-16/libcrt0.a(_endless_loop__.o)
                              /opt/mspgcc/bin/../lib/gcc/msp430/4.7.3/mmpy-16/libcrt0.a(_reset_vector__.o) (_endless_loop__)
/opt/mspgcc/bin/../lib/gcc/msp430/4.7.3/mmpy-16/libcrt0.a(_unexpected_.o)
                              /opt/mspgcc/bin/../lib/gcc/msp430/4.7.3/mmpy-16/crt0ivtbl16.o (_unexpected_)

Allocating common symbols
Common symbol       size              file

uip_ds6_timer_ra    0x8               build/sky/contiki-ng-sky.a(uip-ds6.o)
cc2420_last_rssi    0x1               build/sky/contiki-ng-sky.a(cc2420.o)
uip_ds6_if          0x110             build/sky/contiki-ng-sky.a(uip-ds6.o)
uip_ds6_netif_addr_list_offset
                    0x1               build/sky/contiki-ng-sky.a(uip-ds6.o)
uip_len             0x2               build/sky/contiki-ng-sky.a(uip6.o)
cc2420_sfd_start_time
                    0x2               build/sky/contiki-ng-sky.a(cc2420.o)
uip_ds6_addr_size   0x1               build/sky/contiki-ng-sky.a(uip-ds6.o)
curr_instance       0xfe              build/sky/contiki-ng-sky.a(rpl-dag.o)
uip_sappdata        0x2               build/sky/contiki-ng-sky.a(uip6.o)
packetbuf_addrs     0x10              build/sky/contiki-ng-sky.a(packetbuf.o)
uip_ds6_prefix_list
                    0x5a              build/sky/contiki-ng-sky.a(uip-ds6.o)
uip_lladdr          0x8               build/sky/contiki-ng-sky.a(uip6.o)
uip_aligned_buf     0x8c              build/sky/contiki-ng-sky.a(uip6.o)
uip_flags           0x1               build/sky/contiki-ng-sky.a(uip6.o)
rpl_multicast_addr  0x10              build/sky/contiki-ng-sky.a(rpl.o)
periodic_timer      0x14              build/sky/contiki-ng-sky.a(link-stats.o)
uip_ds6_timer_periodic
                    0xc               build/sky/contiki-ng-sky.a(uip-ds6.o)
cc2420_last_correlation
                    0x1               build/sky/contiki-ng-sky.a(cc2420.o)
linkaddr_node_addr  0x8               build/sky/contiki-ng-sky.a(linkaddr.o)
cc2420_authority_level_of_sender
                    0x2               build/sky/contiki-ng-sky.a(cc2420.o)
uip_udp_conn        0x2               build/sky/contiki-ng-sky.a(uip6.o)
packetbuf_attrs     0x1a              build/sky/contiki-ng-sky.a(packetbuf.o)
msp430_dco_required
                    0x2               build/sky/contiki-ng-sky.a(msp430.o)
prefix_set          0x1               build/sky/contiki-ng-sky.a(rpl-border-rout)
cc2420_sfd_counter  0x1               build/sky/contiki-ng-sky.a(cc2420.o)
uip_appdata         0x2               build/sky/contiki-ng-sky.a(uip6.o)
uip_conn            0x2               build/sky/contiki-ng-sky.a(uip6.o)
tcpip_event         0x1               build/sky/contiki-ng-sky.a(tcpip.o)
unicast_per_neighbor_rpl_storing
                    0xc               build/sky/obj/contiki-main.o
unicast_per_neighbor_rpl_ns
                    0xc               build/sky/obj/contiki-main.o
default_common      0xc               build/sky/obj/contiki-main.o
sensors_flags       0x2               build/sky/contiki-ng-sky.a(contiki-sky-pla)
eb_per_time_source  0xc               build/sky/obj/contiki-main.o
cc2420_sfd_end_time
                    0x2               build/sky/contiki-ng-sky.a(cc2420.o)
sensors_event       0x1               build/sky/contiki-ng-sky.a(sensors.o)
ds2411_id           0x8               build/sky/contiki-ng-sky.a(ds2411.o)
uip_slen            0x2               build/sky/contiki-ng-sky.a(uip6.o)
uip_udp_conns       0xd0              build/sky/contiki-ng-sky.a(uip6.o)

Discarded input sections

 .data          0x0000000000000000        0x0 /opt/mspgcc/bin/../lib/gcc/msp430/4.7.3/mmpy-16/crt0ivtbl16.o
 .bss           0x0000000000000000        0x0 /opt/mspgcc/bin/../lib/gcc/msp430/4.7.3/mmpy-16/crt0ivtbl16.o
 .text.crt0     0x0000000000000000        0x0 /opt/mspgcc/bin/../lib/gcc/msp430/4.7.3/mmpy-16/crt0ivtbl16.o
 .text          0x0000000000000000        0x0 border-router.o
 .bss           0x0000000000000000        0x0 border-router.o
 .text          0x0000000000000000        0x0 build/sky/obj/contiki-main.o
 .data          0x0000000000000000        0x0 build/sky/obj/contiki-main.o
 .bss           0x0000000000000000        0x0 build/sky/obj/contiki-main.o
 COMMON         0x0000000000000000       0x30 build/sky/obj/contiki-main.o
 .text          0x0000000000000000        0x0 build/sky/contiki-ng-sky.a(uart1-putchar.o)
 .data          0x0000000000000000        0x0 build/sky/contiki-ng-sky.a(uart1-putchar.o)
 .text          0x0000000000000000        0x0 build/sky/contiki-ng-sky.a(platform.o)
 .data          0x0000000000000000        0x0 build/sky/contiki-ng-sky.a(platform.o)
 .text.uip_log  0x0000000000000000        0x6 build/sky/contiki-ng-sky.a(platform.o)
 .text          0x0000000000000000        0x0 build/sky/contiki-ng-sky.a(msp430.o)
 .bss           0x0000000000000000        0x0 build/sky/contiki-ng-sky.a(msp430.o)
 .text.msp430_remove_lpm_req
                0x0000000000000000        0xc build/sky/contiki-ng-sky.a(msp430.o)
 .text.sbrk     0x0000000000000000       0x1e build/sky/contiki-ng-sky.a(msp430.o)
 .text          0x0000000000000000        0x0 build/sky/contiki-ng-sky.a(clock.o)
 .data          0x0000000000000000        0x0 build/sky/contiki-ng-sky.a(clock.o)
 .text.clock_set
                0x0000000000000000       0x16 build/sky/contiki-ng-sky.a(clock.o)
 .text.clock_fine_max
                0x0000000000000000        0x6 build/sky/contiki-ng-sky.a(clock.o)
 .text.clock_fine
                0x0000000000000000        0xc build/sky/contiki-ng-sky.a(clock.o)
 .text.clock_wait
                0x0000000000000000       0x30 build/sky/contiki-ng-sky.a(clock.o)
 .text.clock_set_seconds
                0x0000000000000000       0x1c build/sky/contiki-ng-sky.a(clock.o)
 .text.clock_counter
                0x0000000000000000        0xe build/sky/contiki-ng-sky.a(clock.o)
 .text          0x0000000000000000        0x0 build/sky/contiki-ng-sky.a(leds.o)
 .data          0x0000000000000000        0x0 build/sky/contiki-ng-sky.a(leds.o)
 .bss           0x0000000000000000        0x0 build/sky/contiki-ng-sky.a(leds.o)
 .text.leds_get
                0x0000000000000000        0x6 build/sky/contiki-ng-sky.a(leds.o)
 .text.leds_set
                0x0000000000000000        0x6 build/sky/contiki-ng-sky.a(leds.o)
 .text.leds_toggle
                0x0000000000000000       0x12 build/sky/contiki-ng-sky.a(leds.o)
 .text.leds_blink
                0x0000000000000000       0x22 build/sky/contiki-ng-sky.a(leds.o)
 .text          0x0000000000000000        0x0 build/sky/contiki-ng-sky.a(leds-arch.o)
 .data          0x0000000000000000        0x0 build/sky/contiki-ng-sky.a(leds-arch.o)
 .bss           0x0000000000000000        0x0 build/sky/contiki-ng-sky.a(leds-arch.o)
 .text          0x0000000000000000        0x0 build/sky/contiki-ng-sky.a(watchdog.o)
 .data          0x0000000000000000        0x0 build/sky/contiki-ng-sky.a(watchdog.o)
 .text.watchdog_reboot
                0x0000000000000000        0x6 build/sky/contiki-ng-sky.a(watchdog.o)
 .text          0x0000000000000000        0x0 build/sky/contiki-ng-sky.a(rpl-border-rout)
 .data          0x0000000000000000        0x0 build/sky/contiki-ng-sky.a(rpl-border-rout)
 .bss           0x0000000000000000        0x0 build/sky/contiki-ng-sky.a(rpl-border-rout)
 .text          0x0000000000000000        0x0 build/sky/contiki-ng-sky.a(autostart.o)
 .data          0x0000000000000000        0x0 build/sky/contiki-ng-sky.a(autostart.o)
 .bss           0x0000000000000000        0x0 build/sky/contiki-ng-sky.a(autostart.o)
 .text.autostart_exit
                0x0000000000000000       0x14 build/sky/contiki-ng-sky.a(autostart.o)
 .text          0x0000000000000000        0x0 build/sky/contiki-ng-sky.a(ctimer.o)
 .text.ctimer_restart
                0x0000000000000000       0x30 build/sky/contiki-ng-sky.a(ctimer.o)
 .text          0x0000000000000000        0x0 build/sky/contiki-ng-sky.a(log.o)
 .text.log_6addr_compact_snprint
                0x0000000000000000       0x5c build/sky/contiki-ng-sky.a(log.o)
 .text.log_6addr_compact
                0x0000000000000000       0x2e build/sky/contiki-ng-sky.a(log.o)
 .text.log_lladdr_compact
                0x0000000000000000       0x3e build/sky/contiki-ng-sky.a(log.o)
 .text.log_set_level
                0x0000000000000000       0x58 build/sky/contiki-ng-sky.a(log.o)
 .text.log_get_level
                0x0000000000000000       0x48 build/sky/contiki-ng-sky.a(log.o)
 .text.log_level_to_str
                0x0000000000000000       0x14 build/sky/contiki-ng-sky.a(log.o)
 .text          0x0000000000000000        0x0 build/sky/contiki-ng-sky.a(energest.o)
 .data          0x0000000000000000        0x0 build/sky/contiki-ng-sky.a(energest.o)
 .bss           0x0000000000000000        0x0 build/sky/contiki-ng-sky.a(energest.o)
 .text.energest_get_total_time
                0x0000000000000000        0xa build/sky/contiki-ng-sky.a(energest.o)
 .text          0x0000000000000000        0x0 build/sky/contiki-ng-sky.a(etimer.o)
 .text.etimer_reset_with_new_interval
                0x0000000000000000       0x26 build/sky/contiki-ng-sky.a(etimer.o)
 .text.etimer_restart
                0x0000000000000000       0x12 build/sky/contiki-ng-sky.a(etimer.o)
 .text.etimer_adjust
                0x0000000000000000       0x1a build/sky/contiki-ng-sky.a(etimer.o)
 .text.etimer_expiration_time
                0x0000000000000000       0x14 build/sky/contiki-ng-sky.a(etimer.o)
 .text.etimer_start_time
                0x0000000000000000        0x8 build/sky/contiki-ng-sky.a(etimer.o)
 .text          0x0000000000000000        0x0 build/sky/contiki-ng-sky.a(node-id.o)
 .data          0x0000000000000000        0x0 build/sky/contiki-ng-sky.a(node-id.o)
 .text          0x0000000000000000        0x0 build/sky/contiki-ng-sky.a(rtimer.o)
 .data          0x0000000000000000        0x0 build/sky/contiki-ng-sky.a(rtimer.o)
 .text.rtimer_set
                0x0000000000000000       0x24 build/sky/contiki-ng-sky.a(rtimer.o)
 .text          0x0000000000000000        0x0 build/sky/contiki-ng-sky.a(process.o)
 .data          0x0000000000000000        0x0 build/sky/contiki-ng-sky.a(process.o)
 .text.process_exit
                0x0000000000000000        0xa build/sky/contiki-ng-sky.a(process.o)
 .text.process_is_running
                0x0000000000000000        0xe build/sky/contiki-ng-sky.a(process.o)
 .text          0x0000000000000000        0x0 build/sky/contiki-ng-sky.a(timer.o)
 .data          0x0000000000000000        0x0 build/sky/contiki-ng-sky.a(timer.o)
 .bss           0x0000000000000000        0x0 build/sky/contiki-ng-sky.a(timer.o)
 .text.timer_restart
                0x0000000000000000       0x14 build/sky/contiki-ng-sky.a(timer.o)
 .text.timer_remaining
                0x0000000000000000       0x28 build/sky/contiki-ng-sky.a(timer.o)
 .text          0x0000000000000000        0x0 build/sky/contiki-ng-sky.a(list.o)
 .data          0x0000000000000000        0x0 build/sky/contiki-ng-sky.a(list.o)
 .bss           0x0000000000000000        0x0 build/sky/contiki-ng-sky.a(list.o)
 .text.list_copy
                0x0000000000000000        0x6 build/sky/contiki-ng-sky.a(list.o)
 .text.list_chop
                0x0000000000000000       0x1a build/sky/contiki-ng-sky.a(list.o)
 .text.list_pop
                0x0000000000000000        0xe build/sky/contiki-ng-sky.a(list.o)
 .text.list_insert
                0x0000000000000000       0x26 build/sky/contiki-ng-sky.a(list.o)
 .text.list_contains
                0x0000000000000000       0x12 build/sky/contiki-ng-sky.a(list.o)
 .text          0x0000000000000000        0x0 build/sky/contiki-ng-sky.a(random.o)
 .data          0x0000000000000000        0x0 build/sky/contiki-ng-sky.a(random.o)
 .bss           0x0000000000000000        0x0 build/sky/contiki-ng-sky.a(random.o)
 .text          0x0000000000000000        0x0 build/sky/contiki-ng-sky.a(queuebuf.o)
 .text.queuebuf_update_from_packetbuf
                0x0000000000000000       0x22 build/sky/contiki-ng-sky.a(queuebuf.o)
 .text.queuebuf_dataptr
                0x0000000000000000       0x1c build/sky/contiki-ng-sky.a(queuebuf.o)
 .text.queuebuf_datalen
                0x0000000000000000        0x8 build/sky/contiki-ng-sky.a(queuebuf.o)
 .text.queuebuf_addr
                0x0000000000000000       0x16 build/sky/contiki-ng-sky.a(queuebuf.o)
 .text.queuebuf_attr
                0x0000000000000000        0xe build/sky/contiki-ng-sky.a(queuebuf.o)
 .text.queuebuf_debug_print
                0x0000000000000000        0x2 build/sky/contiki-ng-sky.a(queuebuf.o)
 .text          0x0000000000000000        0x0 build/sky/contiki-ng-sky.a(packetbuf.o)
 .data          0x0000000000000000        0x0 build/sky/contiki-ng-sky.a(packetbuf.o)
 .text.packetbuf_remaininglen
                0x0000000000000000        0xe build/sky/contiki-ng-sky.a(packetbuf.o)
 .text          0x0000000000000000        0x0 build/sky/contiki-ng-sky.a(netstack.o)
 .data          0x0000000000000000        0x0 build/sky/contiki-ng-sky.a(netstack.o)
 .text.netstack_ip_packet_processor_add
                0x0000000000000000       0x10 build/sky/contiki-ng-sky.a(netstack.o)
 .text.uip_ds6_ip_packet_processor_rm
                0x0000000000000000        0xc build/sky/contiki-ng-sky.a(netstack.o)
 .text          0x0000000000000000        0x0 build/sky/contiki-ng-sky.a(linkaddr.o)
 .data          0x0000000000000000        0x0 build/sky/contiki-ng-sky.a(linkaddr.o)
 .bss           0x0000000000000000        0x0 build/sky/contiki-ng-sky.a(linkaddr.o)
 .text          0x0000000000000000        0x0 build/sky/contiki-ng-sky.a(csma.o)
 .data          0x0000000000000000        0x0 build/sky/contiki-ng-sky.a(csma.o)
 .bss           0x0000000000000000        0x0 build/sky/contiki-ng-sky.a(csma.o)
 .text          0x0000000000000000        0x0 build/sky/contiki-ng-sky.a(csma-output.o)
 .text          0x0000000000000000        0x0 build/sky/contiki-ng-sky.a(uip-ds6.o)
 .data          0x0000000000000000        0x0 build/sky/contiki-ng-sky.a(uip-ds6.o)
 .text.uip_ds6_set_default_prefix
                0x0000000000000000       0x10 build/sky/contiki-ng-sky.a(uip-ds6.o)
 .text.uip_ds6_prefix_rm
                0x0000000000000000        0xa build/sky/contiki-ng-sky.a(uip-ds6.o)
 .text.uip_ds6_prefix_lookup
                0x0000000000000000       0x28 build/sky/contiki-ng-sky.a(uip-ds6.o)
 .text.uip_ds6_get_global
                0x0000000000000000       0x3e build/sky/contiki-ng-sky.a(uip-ds6.o)
 .text.uip_ds6_aaddr_add
                0x0000000000000000       0x4a build/sky/contiki-ng-sky.a(uip-ds6.o)
 .text.uip_ds6_aaddr_rm
                0x0000000000000000        0xa build/sky/contiki-ng-sky.a(uip-ds6.o)
 .text.uip_ds6_aaddr_lookup
                0x0000000000000000       0x28 build/sky/contiki-ng-sky.a(uip-ds6.o)
 .text          0x0000000000000000        0x0 build/sky/contiki-ng-sky.a(uip-ds6-route.o)
 .text.uip_ds6_route_head
                0x0000000000000000        0x4 build/sky/contiki-ng-sky.a(uip-ds6-route.o)
 .text.uip_ds6_route_next
                0x0000000000000000        0x4 build/sky/contiki-ng-sky.a(uip-ds6-route.o)
 .text.uip_ds6_route_is_nexthop
                0x0000000000000000        0x4 build/sky/contiki-ng-sky.a(uip-ds6-route.o)
 .text.uip_ds6_route_num_routes
                0x0000000000000000        0x4 build/sky/contiki-ng-sky.a(uip-ds6-route.o)
 .text.uip_ds6_route_add
                0x0000000000000000        0x4 build/sky/contiki-ng-sky.a(uip-ds6-route.o)
 .text.uip_ds6_route_rm_by_nexthop
                0x0000000000000000        0x2 build/sky/contiki-ng-sky.a(uip-ds6-route.o)
 .text.uip_ds6_defrt_head
                0x0000000000000000        0xa build/sky/contiki-ng-sky.a(uip-ds6-route.o)
 .text          0x0000000000000000        0x0 build/sky/contiki-ng-sky.a(tcpip.o)
 .text.udp_attach
                0x0000000000000000        0xc build/sky/contiki-ng-sky.a(tcpip.o)
 .text.udp_new  0x0000000000000000       0x1a build/sky/contiki-ng-sky.a(tcpip.o)
 .text.udp_broadcast_new
                0x0000000000000000       0x46 build/sky/contiki-ng-sky.a(tcpip.o)
 .text.tcpip_poll_udp
                0x0000000000000000        0xe build/sky/contiki-ng-sky.a(tcpip.o)
 .text          0x0000000000000000        0x0 build/sky/contiki-ng-sky.a(uip6.o)
 .data          0x0000000000000000        0x0 build/sky/contiki-ng-sky.a(uip6.o)
 .text.uip_chksum
                0x0000000000000000       0x18 build/sky/contiki-ng-sky.a(uip6.o)
 .text.uip_udp_new
                0x0000000000000000       0xac build/sky/contiki-ng-sky.a(uip6.o)
 .text.uip_htons
                0x0000000000000000        0xc build/sky/contiki-ng-sky.a(uip6.o)
 .text.uip_send
                0x0000000000000000       0x62 build/sky/contiki-ng-sky.a(uip6.o)
 .text          0x0000000000000000        0x0 build/sky/contiki-ng-sky.a(uip-ds6-nbr.o)
 .text.uip_ds6_nbr_get_ipaddr
                0x0000000000000000        0x2 build/sky/contiki-ng-sky.a(uip-ds6-nbr.o)
 .text.uip_ds6_nbr_num
                0x0000000000000000       0x24 build/sky/contiki-ng-sky.a(uip-ds6-nbr.o)
 .text          0x0000000000000000        0x0 build/sky/contiki-ng-sky.a(uip-nd6.o)
 .text          0x0000000000000000        0x0 build/sky/contiki-ng-sky.a(sicslowpan.o)
 .data          0x0000000000000000        0x0 build/sky/contiki-ng-sky.a(sicslowpan.o)
 .text.netstack_sniffer_add
                0x0000000000000000        0x6 build/sky/contiki-ng-sky.a(sicslowpan.o)
 .text.netstack_sniffer_remove
                0x0000000000000000        0x6 build/sky/contiki-ng-sky.a(sicslowpan.o)
 .text.sicslowpan_get_last_rssi
                0x0000000000000000        0x6 build/sky/contiki-ng-sky.a(sicslowpan.o)
 .text          0x0000000000000000        0x0 build/sky/contiki-ng-sky.a(uiplib.o)
 .data          0x0000000000000000        0x0 build/sky/contiki-ng-sky.a(uiplib.o)
 .bss           0x0000000000000000        0x0 build/sky/contiki-ng-sky.a(uiplib.o)
 .text.uiplib_ip4addrconv
                0x0000000000000000       0x8a build/sky/contiki-ng-sky.a(uiplib.o)
 .text.uiplib_ipaddr_print
                0x0000000000000000       0x32 build/sky/contiki-ng-sky.a(uiplib.o)
 .text          0x0000000000000000        0x0 build/sky/contiki-ng-sky.a(rpl.o)
 .data          0x0000000000000000        0x0 build/sky/contiki-ng-sky.a(rpl.o)
 .text.rpl_set_prefix
                0x0000000000000000       0x2e build/sky/contiki-ng-sky.a(rpl.o)
 .text.rpl_set_leaf_only
                0x0000000000000000        0x6 build/sky/contiki-ng-sky.a(rpl.o)
 .text          0x0000000000000000        0x0 build/sky/contiki-ng-sky.a(rpl-icmp6.o)
 .bss           0x0000000000000000        0x0 build/sky/contiki-ng-sky.a(rpl-icmp6.o)
 .text          0x0000000000000000        0x0 build/sky/contiki-ng-sky.a(rpl-dag-root.o)
 .data          0x0000000000000000        0x0 build/sky/contiki-ng-sky.a(rpl-dag-root.o)
 .text.rpl_dag_root_print_links
                0x0000000000000000       0x3e build/sky/contiki-ng-sky.a(rpl-dag-root.o)
 .text          0x0000000000000000        0x0 build/sky/contiki-ng-sky.a(slip-bridge.o)
 .data          0x0000000000000000        0x0 build/sky/contiki-ng-sky.a(slip-bridge.o)
 .text          0x0000000000000000        0x0 build/sky/contiki-ng-sky.a(border-router-e)
 .text          0x0000000000000000        0x0 build/sky/contiki-ng-sky.a(contiki-sky-pla)
 .bss           0x0000000000000000        0x0 build/sky/contiki-ng-sky.a(contiki-sky-pla)
 .text          0x0000000000000000        0x0 build/sky/contiki-ng-sky.a(button-sensor.o)
 .data          0x0000000000000000        0x0 build/sky/contiki-ng-sky.a(button-sensor.o)
 .text          0x0000000000000000        0x0 build/sky/contiki-ng-sky.a(ds2411.o)
 .data          0x0000000000000000        0x0 build/sky/contiki-ng-sky.a(ds2411.o)
 .bss           0x0000000000000000        0x0 build/sky/contiki-ng-sky.a(ds2411.o)
 .text          0x0000000000000000        0x0 build/sky/contiki-ng-sky.a(xmem.o)
 .data          0x0000000000000000        0x0 build/sky/contiki-ng-sky.a(xmem.o)
 .bss           0x0000000000000000        0x0 build/sky/contiki-ng-sky.a(xmem.o)
 .text.write_enable
                0x0000000000000000       0x28 build/sky/contiki-ng-sky.a(xmem.o)
 .text.wait_ready
                0x0000000000000000       0x4a build/sky/contiki-ng-sky.a(xmem.o)
 .text.xmem_pread
                0x0000000000000000       0xa4 build/sky/contiki-ng-sky.a(xmem.o)
 .text.xmem_pwrite
                0x0000000000000000      0x102 build/sky/contiki-ng-sky.a(xmem.o)
 .text.xmem_erase
                0x0000000000000000       0xba build/sky/contiki-ng-sky.a(xmem.o)
 .text          0x0000000000000000        0x0 build/sky/contiki-ng-sky.a(sensors.o)
 .text.sensors_first
                0x0000000000000000        0x6 build/sky/contiki-ng-sky.a(sensors.o)
 .text.sensors_next
                0x0000000000000000       0x24 build/sky/contiki-ng-sky.a(sensors.o)
 .text.sensors_find
                0x0000000000000000       0x50 build/sky/contiki-ng-sky.a(sensors.o)
 .text          0x0000000000000000        0x0 build/sky/contiki-ng-sky.a(cc2420.o)
 .text.cc2420_get_channel
                0x0000000000000000        0x6 build/sky/contiki-ng-sky.a(cc2420.o)
 .text          0x0000000000000000        0x0 build/sky/contiki-ng-sky.a(cc2420-arch.o)
 .data          0x0000000000000000        0x0 build/sky/contiki-ng-sky.a(cc2420-arch.o)
 .bss           0x0000000000000000        0x0 build/sky/contiki-ng-sky.a(cc2420-arch.o)
 .text          0x0000000000000000        0x0 build/sky/contiki-ng-sky.a(uart1.o)
 .data          0x0000000000000000        0x0 build/sky/contiki-ng-sky.a(uart1.o)
 .text          0x0000000000000000        0x0 build/sky/contiki-ng-sky.a(slip_uart1.o)
 .data          0x0000000000000000        0x0 build/sky/contiki-ng-sky.a(slip_uart1.o)
 .bss           0x0000000000000000        0x0 build/sky/contiki-ng-sky.a(slip_uart1.o)
 .text          0x0000000000000000        0x0 build/sky/contiki-ng-sky.a(slip.o)
 .text          0x0000000000000000        0x0 build/sky/contiki-ng-sky.a(rtimer-arch.o)
 .data          0x0000000000000000        0x0 build/sky/contiki-ng-sky.a(rtimer-arch.o)
 .bss           0x0000000000000000        0x0 build/sky/contiki-ng-sky.a(rtimer-arch.o)
 .text          0x0000000000000000        0x0 build/sky/contiki-ng-sky.a(stimer.o)
 .data          0x0000000000000000        0x0 build/sky/contiki-ng-sky.a(stimer.o)
 .bss           0x0000000000000000        0x0 build/sky/contiki-ng-sky.a(stimer.o)
 .text.stimer_restart
                0x0000000000000000       0x14 build/sky/contiki-ng-sky.a(stimer.o)
 .text.stimer_reset
                0x0000000000000000       0x1c build/sky/contiki-ng-sky.a(stimer.o)
 .text.stimer_remaining
                0x0000000000000000       0x28 build/sky/contiki-ng-sky.a(stimer.o)
 .text.stimer_elapsed
                0x0000000000000000       0x12 build/sky/contiki-ng-sky.a(stimer.o)
 .text          0x0000000000000000        0x0 build/sky/contiki-ng-sky.a(memb.o)
 .data          0x0000000000000000        0x0 build/sky/contiki-ng-sky.a(memb.o)
 .bss           0x0000000000000000        0x0 build/sky/contiki-ng-sky.a(memb.o)
 .text          0x0000000000000000        0x0 build/sky/contiki-ng-sky.a(nbr-table.o)
 .text          0x0000000000000000        0x0 build/sky/contiki-ng-sky.a(link-stats.o)
 .text.link_stats_get_lladdr
                0x0000000000000000        0xc build/sky/contiki-ng-sky.a(link-stats.o)
 .text          0x0000000000000000        0x0 build/sky/contiki-ng-sky.a(mac-sequence.o)
 .data          0x0000000000000000        0x0 build/sky/contiki-ng-sky.a(mac-sequence.o)
 .text          0x0000000000000000        0x0 build/sky/contiki-ng-sky.a(mac.o)
 .data          0x0000000000000000        0x0 build/sky/contiki-ng-sky.a(mac.o)
 .bss           0x0000000000000000        0x0 build/sky/contiki-ng-sky.a(mac.o)
 .text          0x0000000000000000        0x0 build/sky/contiki-ng-sky.a(framer-802154.o)
 .data          0x0000000000000000        0x0 build/sky/contiki-ng-sky.a(framer-802154.o)
 .text          0x0000000000000000        0x0 build/sky/contiki-ng-sky.a(frame802154.o)
 .bss           0x0000000000000000        0x0 build/sky/contiki-ng-sky.a(frame802154.o)
 .text.frame802154_set_pan_id
                0x0000000000000000        0x6 build/sky/contiki-ng-sky.a(frame802154.o)
 .text.frame802154_check_dest_panid
                0x0000000000000000       0x3a build/sky/contiki-ng-sky.a(frame802154.o)
 .text.frame802154_extract_linkaddr
                0x0000000000000000       0x9c build/sky/contiki-ng-sky.a(frame802154.o)
 .text          0x0000000000000000        0x0 build/sky/contiki-ng-sky.a(csma-security.o)
 .data          0x0000000000000000        0x0 build/sky/contiki-ng-sky.a(csma-security.o)
 .bss           0x0000000000000000        0x0 build/sky/contiki-ng-sky.a(csma-security.o)
 .text          0x0000000000000000        0x0 build/sky/contiki-ng-sky.a(uipbuf.o)
 .data          0x0000000000000000        0x0 build/sky/contiki-ng-sky.a(uipbuf.o)
 .text.uipbuf_set_attr
                0x0000000000000000       0x16 build/sky/contiki-ng-sky.a(uipbuf.o)
 .text.uipbuf_set_default_attr
                0x0000000000000000       0x16 build/sky/contiki-ng-sky.a(uipbuf.o)
 .text.uipbuf_set_attr_flag
                0x0000000000000000        0x6 build/sky/contiki-ng-sky.a(uipbuf.o)
 .text.uipbuf_clr_attr_flag
                0x0000000000000000        0x6 build/sky/contiki-ng-sky.a(uipbuf.o)
 .text.uipbuf_is_attr_flag
                0x0000000000000000       0x12 build/sky/contiki-ng-sky.a(uipbuf.o)
 .text          0x0000000000000000        0x0 build/sky/contiki-ng-sky.a(uip-icmp6.o)
 .text.uip_icmp6_echo_reply_callback_add
                0x0000000000000000       0x18 build/sky/contiki-ng-sky.a(uip-icmp6.o)
 .text.uip_icmp6_echo_reply_callback_rm
                0x0000000000000000        0xc build/sky/contiki-ng-sky.a(uip-icmp6.o)
 .text          0x0000000000000000        0x0 build/sky/contiki-ng-sky.a(uip-sr.o)
 .text.uip_sr_num_nodes
                0x0000000000000000        0x6 build/sky/contiki-ng-sky.a(uip-sr.o)
 .text.uip_sr_node_head
                0x0000000000000000        0xa build/sky/contiki-ng-sky.a(uip-sr.o)
 .text.uip_sr_node_next
                0x0000000000000000        0x6 build/sky/contiki-ng-sky.a(uip-sr.o)
 .rodata        0x0000000000000000       0x44 build/sky/contiki-ng-sky.a(uip-sr.o)
 .text.uip_sr_link_snprint
                0x0000000000000000       0xd6 build/sky/contiki-ng-sky.a(uip-sr.o)
 .text          0x0000000000000000        0x0 build/sky/contiki-ng-sky.a(rpl-nbr-policy.)
 .data          0x0000000000000000        0x0 build/sky/contiki-ng-sky.a(rpl-nbr-policy.)
 .text          0x0000000000000000        0x0 build/sky/contiki-ng-sky.a(rpl-neighbor.o)
 .text.rpl_neighbor_count
                0x0000000000000000       0x2c build/sky/contiki-ng-sky.a(rpl-neighbor.o)
 .text.rpl_neighbor_is_acceptable_parent
                0x0000000000000000       0x18 build/sky/contiki-ng-sky.a(rpl-neighbor.o)
 .text.rpl_neighbor_get_link_metric
                0x0000000000000000       0x18 build/sky/contiki-ng-sky.a(rpl-neighbor.o)
 .rodata        0x0000000000000000       0x61 build/sky/contiki-ng-sky.a(rpl-neighbor.o)
 .text.rpl_neighbor_snprint
                0x0000000000000000      0x20c build/sky/contiki-ng-sky.a(rpl-neighbor.o)
 .text.rpl_neighbor_print_list
                0x0000000000000000       0x58 build/sky/contiki-ng-sky.a(rpl-neighbor.o)
 .text.rpl_neighbor_is_reachable
                0x0000000000000000       0x30 build/sky/contiki-ng-sky.a(rpl-neighbor.o)
 .text          0x0000000000000000        0x0 build/sky/contiki-ng-sky.a(rpl-dag.o)
 .data          0x0000000000000000        0x0 build/sky/contiki-ng-sky.a(rpl-dag.o)
 .bss           0x0000000000000000        0x0 build/sky/contiki-ng-sky.a(rpl-dag.o)
 .text.rpl_dag_state_to_str
                0x0000000000000000       0x12 build/sky/contiki-ng-sky.a(rpl-dag.o)
 .text.rpl_get_default_instance
                0x0000000000000000       0x10 build/sky/contiki-ng-sky.a(rpl-dag.o)
 .text.rpl_get_any_dag
                0x0000000000000000       0x10 build/sky/contiki-ng-sky.a(rpl-dag.o)
 .text.rpl_refresh_routes
                0x0000000000000000       0x20 build/sky/contiki-ng-sky.a(rpl-dag.o)
 .text          0x0000000000000000        0x0 build/sky/contiki-ng-sky.a(rpl-timers.o)
 .data          0x0000000000000000        0x0 build/sky/contiki-ng-sky.a(rpl-timers.o)
 .text          0x0000000000000000        0x0 build/sky/contiki-ng-sky.a(rpl-ext-header.)
 .data          0x0000000000000000        0x0 build/sky/contiki-ng-sky.a(rpl-ext-header.)
 .bss           0x0000000000000000        0x0 build/sky/contiki-ng-sky.a(rpl-ext-header.)
 .text          0x0000000000000000        0x0 build/sky/contiki-ng-sky.a(rpl-mrhof.o)
 .bss           0x0000000000000000        0x0 build/sky/contiki-ng-sky.a(rpl-mrhof.o)
 .text          0x0000000000000000        0x0 build/sky/contiki-ng-sky.a(spi-legacy.o)
 .data          0x0000000000000000        0x0 build/sky/contiki-ng-sky.a(spi-legacy.o)
 .bss           0x0000000000000000        0x1 build/sky/contiki-ng-sky.a(spi-legacy.o)
 .text          0x0000000000000000        0x0 /opt/mspgcc/bin/../lib/gcc/msp430/4.7.3/mmpy-16/libgcc.a(_mulsi3.o)
 .data          0x0000000000000000        0x0 /opt/mspgcc/bin/../lib/gcc/msp430/4.7.3/mmpy-16/libgcc.a(_mulsi3.o)
 .bss           0x0000000000000000        0x0 /opt/mspgcc/bin/../lib/gcc/msp430/4.7.3/mmpy-16/libgcc.a(_mulsi3.o)
 .text          0x0000000000000000        0x0 /opt/mspgcc/bin/../lib/gcc/msp430/4.7.3/mmpy-16/libgcc.a(_udivmod16.o)
 .data          0x0000000000000000        0x0 /opt/mspgcc/bin/../lib/gcc/msp430/4.7.3/mmpy-16/libgcc.a(_udivmod16.o)
 .bss           0x0000000000000000        0x0 /opt/mspgcc/bin/../lib/gcc/msp430/4.7.3/mmpy-16/libgcc.a(_udivmod16.o)
 .text          0x0000000000000000        0x0 /opt/mspgcc/bin/../lib/gcc/msp430/4.7.3/mmpy-16/libgcc.a(_divmod16.o)
 .data          0x0000000000000000        0x0 /opt/mspgcc/bin/../lib/gcc/msp430/4.7.3/mmpy-16/libgcc.a(_divmod16.o)
 .bss           0x0000000000000000        0x0 /opt/mspgcc/bin/../lib/gcc/msp430/4.7.3/mmpy-16/libgcc.a(_divmod16.o)
 .text          0x0000000000000000        0x0 /opt/mspgcc/bin/../lib/gcc/msp430/4.7.3/mmpy-16/libgcc.a(_udivmod32.o)
 .data          0x0000000000000000        0x0 /opt/mspgcc/bin/../lib/gcc/msp430/4.7.3/mmpy-16/libgcc.a(_udivmod32.o)
 .bss           0x0000000000000000        0x0 /opt/mspgcc/bin/../lib/gcc/msp430/4.7.3/mmpy-16/libgcc.a(_udivmod32.o)
 .text          0x0000000000000000        0x0 /opt/mspgcc/bin/../lib/gcc/msp430/4.7.3/mmpy-16/libgcc.a(_divmod32.o)
 .data          0x0000000000000000        0x0 /opt/mspgcc/bin/../lib/gcc/msp430/4.7.3/mmpy-16/libgcc.a(_divmod32.o)
 .bss           0x0000000000000000        0x0 /opt/mspgcc/bin/../lib/gcc/msp430/4.7.3/mmpy-16/libgcc.a(_divmod32.o)
 .text          0x0000000000000000        0x0 /opt/mspgcc/bin/../lib/gcc/msp430/4.7.3/../../../../msp430/lib/mmpy-16/libc.a(printf.o)
 .data          0x0000000000000000        0x0 /opt/mspgcc/bin/../lib/gcc/msp430/4.7.3/../../../../msp430/lib/mmpy-16/libc.a(printf.o)
 .bss           0x0000000000000000        0x0 /opt/mspgcc/bin/../lib/gcc/msp430/4.7.3/../../../../msp430/lib/mmpy-16/libc.a(printf.o)
 .text.vprintf  0x0000000000000000        0xe /opt/mspgcc/bin/../lib/gcc/msp430/4.7.3/../../../../msp430/lib/mmpy-16/libc.a(printf.o)
 .text          0x0000000000000000        0x0 /opt/mspgcc/bin/../lib/gcc/msp430/4.7.3/../../../../msp430/lib/mmpy-16/libc.a(sprintf.o)
 .data          0x0000000000000000        0x0 /opt/mspgcc/bin/../lib/gcc/msp430/4.7.3/../../../../msp430/lib/mmpy-16/libc.a(sprintf.o)
 .bss           0x0000000000000000        0x0 /opt/mspgcc/bin/../lib/gcc/msp430/4.7.3/../../../../msp430/lib/mmpy-16/libc.a(sprintf.o)
 .text.sprintf  0x0000000000000000       0x1c /opt/mspgcc/bin/../lib/gcc/msp430/4.7.3/../../../../msp430/lib/mmpy-16/libc.a(sprintf.o)
 .text.vsprintf
                0x0000000000000000       0x16 /opt/mspgcc/bin/../lib/gcc/msp430/4.7.3/../../../../msp430/lib/mmpy-16/libc.a(sprintf.o)
 .text.vsnprintf
                0x0000000000000000       0x12 /opt/mspgcc/bin/../lib/gcc/msp430/4.7.3/../../../../msp430/lib/mmpy-16/libc.a(sprintf.o)
 .text          0x0000000000000000        0x0 /opt/mspgcc/bin/../lib/gcc/msp430/4.7.3/../../../../msp430/lib/mmpy-16/libc.a(vuprintf.o)
 .data          0x0000000000000000        0x0 /opt/mspgcc/bin/../lib/gcc/msp430/4.7.3/../../../../msp430/lib/mmpy-16/libc.a(vuprintf.o)
 .bss           0x0000000000000000        0x0 /opt/mspgcc/bin/../lib/gcc/msp430/4.7.3/../../../../msp430/lib/mmpy-16/libc.a(vuprintf.o)
 .text          0x0000000000000000        0x0 /opt/mspgcc/bin/../lib/gcc/msp430/4.7.3/../../../../msp430/lib/mmpy-16/libc.a(puts.o)
 .data          0x0000000000000000        0x0 /opt/mspgcc/bin/../lib/gcc/msp430/4.7.3/../../../../msp430/lib/mmpy-16/libc.a(puts.o)
 .bss           0x0000000000000000        0x0 /opt/mspgcc/bin/../lib/gcc/msp430/4.7.3/../../../../msp430/lib/mmpy-16/libc.a(puts.o)
 .text          0x0000000000000000        0x0 /opt/mspgcc/bin/../lib/gcc/msp430/4.7.3/../../../../msp430/lib/mmpy-16/libc.a(rand.o)
 .data          0x0000000000000000        0x0 /opt/mspgcc/bin/../lib/gcc/msp430/4.7.3/../../../../msp430/lib/mmpy-16/libc.a(rand.o)
 .bss           0x0000000000000000        0x0 /opt/mspgcc/bin/../lib/gcc/msp430/4.7.3/../../../../msp430/lib/mmpy-16/libc.a(rand.o)
 .text.rand_r   0x0000000000000000       0x24 /opt/mspgcc/bin/../lib/gcc/msp430/4.7.3/../../../../msp430/lib/mmpy-16/libc.a(rand.o)
 .text          0x0000000000000000        0x0 /opt/mspgcc/bin/../lib/gcc/msp430/4.7.3/../../../../msp430/lib/mmpy-16/libc.a(strcmp.o)
 .data          0x0000000000000000        0x0 /opt/mspgcc/bin/../lib/gcc/msp430/4.7.3/../../../../msp430/lib/mmpy-16/libc.a(strcmp.o)
 .bss           0x0000000000000000        0x0 /opt/mspgcc/bin/../lib/gcc/msp430/4.7.3/../../../../msp430/lib/mmpy-16/libc.a(strcmp.o)
 .text.strcmp   0x0000000000000000       0x1e /opt/mspgcc/bin/../lib/gcc/msp430/4.7.3/../../../../msp430/lib/mmpy-16/libc.a(strcmp.o)
 .debug_frame   0x0000000000000000       0x1e /opt/mspgcc/bin/../lib/gcc/msp430/4.7.3/../../../../msp430/lib/mmpy-16/libc.a(strcmp.o)
 .debug_info    0x0000000000000000       0xa9 /opt/mspgcc/bin/../lib/gcc/msp430/4.7.3/../../../../msp430/lib/mmpy-16/libc.a(strcmp.o)
 .debug_abbrev  0x0000000000000000       0x65 /opt/mspgcc/bin/../lib/gcc/msp430/4.7.3/../../../../msp430/lib/mmpy-16/libc.a(strcmp.o)
 .debug_loc     0x0000000000000000       0x32 /opt/mspgcc/bin/../lib/gcc/msp430/4.7.3/../../../../msp430/lib/mmpy-16/libc.a(strcmp.o)
 .debug_aranges
                0x0000000000000000       0x14 /opt/mspgcc/bin/../lib/gcc/msp430/4.7.3/../../../../msp430/lib/mmpy-16/libc.a(strcmp.o)
 .debug_ranges  0x0000000000000000        0x8 /opt/mspgcc/bin/../lib/gcc/msp430/4.7.3/../../../../msp430/lib/mmpy-16/libc.a(strcmp.o)
 .debug_line    0x0000000000000000       0x49 /opt/mspgcc/bin/../lib/gcc/msp430/4.7.3/../../../../msp430/lib/mmpy-16/libc.a(strcmp.o)
 .debug_str     0x0000000000000000       0xf9 /opt/mspgcc/bin/../lib/gcc/msp430/4.7.3/../../../../msp430/lib/mmpy-16/libc.a(strcmp.o)
 .comment       0x0000000000000000       0x31 /opt/mspgcc/bin/../lib/gcc/msp430/4.7.3/../../../../msp430/lib/mmpy-16/libc.a(strcmp.o)
 .text          0x0000000000000000        0x0 /opt/mspgcc/bin/../lib/gcc/msp430/4.7.3/../../../../msp430/lib/mmpy-16/libc.a(strncmp.o)
 .data          0x0000000000000000        0x0 /opt/mspgcc/bin/../lib/gcc/msp430/4.7.3/../../../../msp430/lib/mmpy-16/libc.a(strncmp.o)
 .bss           0x0000000000000000        0x0 /opt/mspgcc/bin/../lib/gcc/msp430/4.7.3/../../../../msp430/lib/mmpy-16/libc.a(strncmp.o)
 .text.strncmp  0x0000000000000000       0x2a /opt/mspgcc/bin/../lib/gcc/msp430/4.7.3/../../../../msp430/lib/mmpy-16/libc.a(strncmp.o)
 .debug_frame   0x0000000000000000       0x24 /opt/mspgcc/bin/../lib/gcc/msp430/4.7.3/../../../../msp430/lib/mmpy-16/libc.a(strncmp.o)
 .debug_info    0x0000000000000000       0xc2 /opt/mspgcc/bin/../lib/gcc/msp430/4.7.3/../../../../msp430/lib/mmpy-16/libc.a(strncmp.o)
 .debug_abbrev  0x0000000000000000       0x72 /opt/mspgcc/bin/../lib/gcc/msp430/4.7.3/../../../../msp430/lib/mmpy-16/libc.a(strncmp.o)
 .debug_loc     0x0000000000000000       0x4a /opt/mspgcc/bin/../lib/gcc/msp430/4.7.3/../../../../msp430/lib/mmpy-16/libc.a(strncmp.o)
 .debug_aranges
                0x0000000000000000       0x14 /opt/mspgcc/bin/../lib/gcc/msp430/4.7.3/../../../../msp430/lib/mmpy-16/libc.a(strncmp.o)
 .debug_ranges  0x0000000000000000        0x8 /opt/mspgcc/bin/../lib/gcc/msp430/4.7.3/../../../../msp430/lib/mmpy-16/libc.a(strncmp.o)
 .debug_line    0x0000000000000000       0x91 /opt/mspgcc/bin/../lib/gcc/msp430/4.7.3/../../../../msp430/lib/mmpy-16/libc.a(strncmp.o)
 .debug_str     0x0000000000000000      0x102 /opt/mspgcc/bin/../lib/gcc/msp430/4.7.3/../../../../msp430/lib/mmpy-16/libc.a(strncmp.o)
 .comment       0x0000000000000000       0x31 /opt/mspgcc/bin/../lib/gcc/msp430/4.7.3/../../../../msp430/lib/mmpy-16/libc.a(strncmp.o)
 .text          0x0000000000000000        0x0 /opt/mspgcc/bin/../lib/gcc/msp430/4.7.3/../../../../msp430/lib/mmpy-16/libc.a(memcmp.o)
 .data          0x0000000000000000        0x0 /opt/mspgcc/bin/../lib/gcc/msp430/4.7.3/../../../../msp430/lib/mmpy-16/libc.a(memcmp.o)
 .bss           0x0000000000000000        0x0 /opt/mspgcc/bin/../lib/gcc/msp430/4.7.3/../../../../msp430/lib/mmpy-16/libc.a(memcmp.o)
 .text          0x0000000000000000        0x0 /opt/mspgcc/bin/../lib/gcc/msp430/4.7.3/../../../../msp430/lib/mmpy-16/libc.a(memcpy.o)
 .data          0x0000000000000000        0x0 /opt/mspgcc/bin/../lib/gcc/msp430/4.7.3/../../../../msp430/lib/mmpy-16/libc.a(memcpy.o)
 .bss           0x0000000000000000        0x0 /opt/mspgcc/bin/../lib/gcc/msp430/4.7.3/../../../../msp430/lib/mmpy-16/libc.a(memcpy.o)
 .text          0x0000000000000000        0x0 /opt/mspgcc/bin/../lib/gcc/msp430/4.7.3/../../../../msp430/lib/mmpy-16/libc.a(memmove.o)
 .data          0x0000000000000000        0x0 /opt/mspgcc/bin/../lib/gcc/msp430/4.7.3/../../../../msp430/lib/mmpy-16/libc.a(memmove.o)
 .bss           0x0000000000000000        0x0 /opt/mspgcc/bin/../lib/gcc/msp430/4.7.3/../../../../msp430/lib/mmpy-16/libc.a(memmove.o)
 .text          0x0000000000000000        0x0 /opt/mspgcc/bin/../lib/gcc/msp430/4.7.3/../../../../msp430/lib/mmpy-16/libc.a(memset.o)
 .data          0x0000000000000000        0x0 /opt/mspgcc/bin/../lib/gcc/msp430/4.7.3/../../../../msp430/lib/mmpy-16/libc.a(memset.o)
 .bss           0x0000000000000000        0x0 /opt/mspgcc/bin/../lib/gcc/msp430/4.7.3/../../../../msp430/lib/mmpy-16/libc.a(memset.o)
 .text          0x0000000000000000        0x0 /opt/mspgcc/bin/../lib/gcc/msp430/4.7.3/mmpy-16/libgcc.a(_udivmod64.o)
 .data          0x0000000000000000        0x0 /opt/mspgcc/bin/../lib/gcc/msp430/4.7.3/mmpy-16/libgcc.a(_udivmod64.o)
 .bss           0x0000000000000000        0x0 /opt/mspgcc/bin/../lib/gcc/msp430/4.7.3/mmpy-16/libgcc.a(_udivmod64.o)
 .text          0x0000000000000000        0x0 /opt/mspgcc/bin/../lib/gcc/msp430/4.7.3/mmpy-16/libcrt0.a(_reset_vector__.o)
 .data          0x0000000000000000        0x0 /opt/mspgcc/bin/../lib/gcc/msp430/4.7.3/mmpy-16/libcrt0.a(_reset_vector__.o)
 .bss           0x0000000000000000        0x0 /opt/mspgcc/bin/../lib/gcc/msp430/4.7.3/mmpy-16/libcrt0.a(_reset_vector__.o)
 .text          0x0000000000000000        0x0 /opt/mspgcc/bin/../lib/gcc/msp430/4.7.3/mmpy-16/libcrt0.a(__watchdog_support.o)
 .data          0x0000000000000000        0x0 /opt/mspgcc/bin/../lib/gcc/msp430/4.7.3/mmpy-16/libcrt0.a(__watchdog_support.o)
 .bss           0x0000000000000000        0x0 /opt/mspgcc/bin/../lib/gcc/msp430/4.7.3/mmpy-16/libcrt0.a(__watchdog_support.o)
 .text          0x0000000000000000        0x0 /opt/mspgcc/bin/../lib/gcc/msp430/4.7.3/mmpy-16/libcrt0.a(__init_stack.o)
 .data          0x0000000000000000        0x0 /opt/mspgcc/bin/../lib/gcc/msp430/4.7.3/mmpy-16/libcrt0.a(__init_stack.o)
 .bss           0x0000000000000000        0x0 /opt/mspgcc/bin/../lib/gcc/msp430/4.7.3/mmpy-16/libcrt0.a(__init_stack.o)
 .text          0x0000000000000000        0x0 /opt/mspgcc/bin/../lib/gcc/msp430/4.7.3/mmpy-16/libcrt0.a(__low_level_init.o)
 .data          0x0000000000000000        0x0 /opt/mspgcc/bin/../lib/gcc/msp430/4.7.3/mmpy-16/libcrt0.a(__low_level_init.o)
 .bss           0x0000000000000000        0x0 /opt/mspgcc/bin/../lib/gcc/msp430/4.7.3/mmpy-16/libcrt0.a(__low_level_init.o)
 .text          0x0000000000000000        0x0 /opt/mspgcc/bin/../lib/gcc/msp430/4.7.3/mmpy-16/libcrt0.a(_copy_data.o)
 .data          0x0000000000000000        0x0 /opt/mspgcc/bin/../lib/gcc/msp430/4.7.3/mmpy-16/libcrt0.a(_copy_data.o)
 .bss           0x0000000000000000        0x0 /opt/mspgcc/bin/../lib/gcc/msp430/4.7.3/mmpy-16/libcrt0.a(_copy_data.o)
 .text          0x0000000000000000        0x0 /opt/mspgcc/bin/../lib/gcc/msp430/4.7.3/mmpy-16/libcrt0.a(_clear_bss.o)
 .data          0x0000000000000000        0x0 /opt/mspgcc/bin/../lib/gcc/msp430/4.7.3/mmpy-16/libcrt0.a(_clear_bss.o)
 .bss           0x0000000000000000        0x0 /opt/mspgcc/bin/../lib/gcc/msp430/4.7.3/mmpy-16/libcrt0.a(_clear_bss.o)
 .text          0x0000000000000000        0x0 /opt/mspgcc/bin/../lib/gcc/msp430/4.7.3/mmpy-16/libcrt0.a(__stop_progExec__.o)
 .data          0x0000000000000000        0x0 /opt/mspgcc/bin/../lib/gcc/msp430/4.7.3/mmpy-16/libcrt0.a(__stop_progExec__.o)
 .bss           0x0000000000000000        0x0 /opt/mspgcc/bin/../lib/gcc/msp430/4.7.3/mmpy-16/libcrt0.a(__stop_progExec__.o)
 .text          0x0000000000000000        0x0 /opt/mspgcc/bin/../lib/gcc/msp430/4.7.3/mmpy-16/libcrt0.a(_endless_loop__.o)
 .data          0x0000000000000000        0x0 /opt/mspgcc/bin/../lib/gcc/msp430/4.7.3/mmpy-16/libcrt0.a(_endless_loop__.o)
 .bss           0x0000000000000000        0x0 /opt/mspgcc/bin/../lib/gcc/msp430/4.7.3/mmpy-16/libcrt0.a(_endless_loop__.o)
 .text          0x0000000000000000        0x0 /opt/mspgcc/bin/../lib/gcc/msp430/4.7.3/mmpy-16/libcrt0.a(_unexpected_.o)
 .data          0x0000000000000000        0x0 /opt/mspgcc/bin/../lib/gcc/msp430/4.7.3/mmpy-16/libcrt0.a(_unexpected_.o)
 .bss           0x0000000000000000        0x0 /opt/mspgcc/bin/../lib/gcc/msp430/4.7.3/mmpy-16/libcrt0.a(_unexpected_.o)

Memory Configuration

Name             Origin             Length             Attributes
sfr              0x0000000000000000 0x0000000000000010
peripheral_8bit  0x0000000000000010 0x00000000000000f0
peripheral_16bit 0x0000000000000100 0x0000000000000100
ram_mirror       0x0000000000000200 0x0000000000000800 xw
infomem          0x0000000000001000 0x0000000000000100
infob            0x0000000000001000 0x0000000000000080
infoa            0x0000000000001080 0x0000000000000080
ram              0x0000000000001100 0x0000000000002800 xw
rom              0x0000000000004000 0x000000000000bfe0 xr
vectors          0x000000000000ffe0 0x0000000000000020
bsl              0x0000000000000000 0x0000000000000000
infoc            0x0000000000000000 0x0000000000000000
infod            0x0000000000000000 0x0000000000000000
ram2             0x0000000000000000 0x0000000000000000 xw
usbram           0x0000000000000000 0x0000000000000000 xw
far_rom          0x0000000000000000 0x0000000000000000
*default*        0x0000000000000000 0xffffffffffffffff

Linker script and memory map

LOAD /opt/mspgcc/bin/../lib/gcc/msp430/4.7.3/mmpy-16/crt0ivtbl16.o
                0x0000000000002a14                _stack = _end
LOAD border-router.o
LOAD build/sky/obj/contiki-main.o
LOAD build/sky/contiki-ng-sky.a
LOAD /opt/mspgcc/bin/../lib/gcc/msp430/4.7.3/mmpy-16/libgcc.a
LOAD /opt/mspgcc/bin/../lib/gcc/msp430/4.7.3/../../../../msp430/lib/mmpy-16/libc.a
LOAD /opt/mspgcc/bin/../lib/gcc/msp430/4.7.3/mmpy-16/libgcc.a
LOAD /opt/mspgcc/bin/../lib/gcc/msp430/4.7.3/mmpy-16/libcrt0.a
                0x0000000000000080                PROVIDE (__info_segment_size, 0x80)
                0x0000000000001000                PROVIDE (__infob, 0x1000)
                0x0000000000001080                PROVIDE (__infoa, 0x1080)
                0x0000000000000000                __IE1 = 0x0
                0x0000000000000002                __IFG1 = 0x2
                0x0000000000000004                __ME1 = 0x4
                0x0000000000000001                __IE2 = 0x1
                0x0000000000000003                __IFG2 = 0x3
                0x0000000000000005                __ME2 = 0x5
                0x0000000000000120                __WDTCTL = 0x120
                0x0000000000000130                __MPY = 0x130
                0x0000000000000132                __MPYS = 0x132
                0x0000000000000134                __MAC = 0x134
                0x0000000000000136                __MACS = 0x136
                0x0000000000000138                __OP2 = 0x138
                0x000000000000013a                __RESLO = 0x13a
                0x000000000000013c                __RESHI = 0x13c
                0x000000000000013e                __SUMEXT = 0x13e
                0x0000000000000020                __P1IN = 0x20
                0x0000000000000021                __P1OUT = 0x21
                0x0000000000000022                __P1DIR = 0x22
                0x0000000000000023                __P1IFG = 0x23
                0x0000000000000024                __P1IES = 0x24
                0x0000000000000025                __P1IE = 0x25
                0x0000000000000026                __P1SEL = 0x26
                0x0000000000000028                __P2IN = 0x28
                0x0000000000000029                __P2OUT = 0x29
                0x000000000000002a                __P2DIR = 0x2a
                0x000000000000002b                __P2IFG = 0x2b
                0x000000000000002c                __P2IES = 0x2c
                0x000000000000002d                __P2IE = 0x2d
                0x000000000000002e                __P2SEL = 0x2e
                0x0000000000000018                __P3IN = 0x18
                0x0000000000000019                __P3OUT = 0x19
                0x000000000000001a                __P3DIR = 0x1a
                0x000000000000001b                __P3SEL = 0x1b
                0x000000000000001c                __P4IN = 0x1c
                0x000000000000001d                __P4OUT = 0x1d
                0x000000000000001e                __P4DIR = 0x1e
                0x000000000000001f                __P4SEL = 0x1f
                0x0000000000000030                __P5IN = 0x30
                0x0000000000000031                __P5OUT = 0x31
                0x0000000000000032                __P5DIR = 0x32
                0x0000000000000033                __P5SEL = 0x33
                0x0000000000000034                __P6IN = 0x34
                0x0000000000000035                __P6OUT = 0x35
                0x0000000000000036                __P6DIR = 0x36
                0x0000000000000037                __P6SEL = 0x37
                0x0000000000000070                __U0CTL = 0x70
                0x0000000000000071                __U0TCTL = 0x71
                0x0000000000000072                __U0RCTL = 0x72
                0x0000000000000073                __U0MCTL = 0x73
                0x0000000000000074                __U0BR0 = 0x74
                0x0000000000000075                __U0BR1 = 0x75
                0x0000000000000076                __U0RXBUF = 0x76
                0x0000000000000077                __U0TXBUF = 0x77
                0x0000000000000078                __U1CTL = 0x78
                0x0000000000000079                __U1TCTL = 0x79
                0x000000000000007a                __U1RCTL = 0x7a
                0x000000000000007b                __U1MCTL = 0x7b
                0x000000000000007c                __U1BR0 = 0x7c
                0x000000000000007d                __U1BR1 = 0x7d
                0x000000000000007e                __U1RXBUF = 0x7e
                0x000000000000007f                __U1TXBUF = 0x7f
                0x0000000000000050                __I2CIE = 0x50
                0x0000000000000051                __I2CIFG = 0x51
                0x0000000000000052                __I2CNDAT = 0x52
                0x0000000000000071                __I2CTCTL = 0x71
                0x0000000000000072                __I2CDCTL = 0x72
                0x0000000000000073                __I2CPSC = 0x73
                0x0000000000000074                __I2CSCLH = 0x74
                0x0000000000000075                __I2CSCLL = 0x75
                0x0000000000000076                __I2CDRB = 0x76
                0x0000000000000076                __I2CDRW = 0x76
                0x0000000000000118                __I2COA = 0x118
                0x000000000000011a                __I2CSA = 0x11a
                0x000000000000011c                __I2CIV = 0x11c
                0x000000000000012e                __TAIV = 0x12e
                0x0000000000000160                __TACTL = 0x160
                0x0000000000000162                __TACCTL0 = 0x162
                0x0000000000000164                __TACCTL1 = 0x164
                0x0000000000000166                __TACCTL2 = 0x166
                0x0000000000000170                __TAR = 0x170
                0x0000000000000172                __TACCR0 = 0x172
                0x0000000000000174                __TACCR1 = 0x174
                0x0000000000000176                __TACCR2 = 0x176
                0x000000000000011e                __TBIV = 0x11e
                0x0000000000000180                __TBCTL = 0x180
                0x0000000000000182                __TBCCTL0 = 0x182
                0x0000000000000184                __TBCCTL1 = 0x184
                0x0000000000000186                __TBCCTL2 = 0x186
                0x0000000000000188                __TBCCTL3 = 0x188
                0x000000000000018a                __TBCCTL4 = 0x18a
                0x000000000000018c                __TBCCTL5 = 0x18c
                0x000000000000018e                __TBCCTL6 = 0x18e
                0x0000000000000190                __TBR = 0x190
                0x0000000000000192                __TBCCR0 = 0x192
                0x0000000000000194                __TBCCR1 = 0x194
                0x0000000000000196                __TBCCR2 = 0x196
                0x0000000000000198                __TBCCR3 = 0x198
                0x000000000000019a                __TBCCR4 = 0x19a
                0x000000000000019c                __TBCCR5 = 0x19c
                0x000000000000019e                __TBCCR6 = 0x19e
                0x0000000000000056                __DCOCTL = 0x56
                0x0000000000000057                __BCSCTL1 = 0x57
                0x0000000000000058                __BCSCTL2 = 0x58
                0x0000000000000055                __SVSCTL = 0x55
                0x0000000000000128                __FCTL1 = 0x128
                0x000000000000012a                __FCTL2 = 0x12a
                0x000000000000012c                __FCTL3 = 0x12c
                0x0000000000000059                __CACTL1 = 0x59
                0x000000000000005a                __CACTL2 = 0x5a
                0x000000000000005b                __CAPD = 0x5b
                0x00000000000001a0                __ADC12CTL0 = 0x1a0
                0x00000000000001a2                __ADC12CTL1 = 0x1a2
                0x00000000000001a4                __ADC12IFG = 0x1a4
                0x00000000000001a6                __ADC12IE = 0x1a6
                0x00000000000001a8                __ADC12IV = 0x1a8
                0x0000000000000140                __ADC12MEM0 = 0x140
                0x0000000000000142                __ADC12MEM1 = 0x142
                0x0000000000000144                __ADC12MEM2 = 0x144
                0x0000000000000146                __ADC12MEM3 = 0x146
                0x0000000000000148                __ADC12MEM4 = 0x148
                0x000000000000014a                __ADC12MEM5 = 0x14a
                0x000000000000014c                __ADC12MEM6 = 0x14c
                0x000000000000014e                __ADC12MEM7 = 0x14e
                0x0000000000000150                __ADC12MEM8 = 0x150
                0x0000000000000152                __ADC12MEM9 = 0x152
                0x0000000000000154                __ADC12MEM10 = 0x154
                0x0000000000000156                __ADC12MEM11 = 0x156
                0x0000000000000158                __ADC12MEM12 = 0x158
                0x000000000000015a                __ADC12MEM13 = 0x15a
                0x000000000000015c                __ADC12MEM14 = 0x15c
                0x000000000000015e                __ADC12MEM15 = 0x15e
                0x0000000000000080                __ADC12MCTL0 = 0x80
                0x0000000000000081                __ADC12MCTL1 = 0x81
                0x0000000000000082                __ADC12MCTL2 = 0x82
                0x0000000000000083                __ADC12MCTL3 = 0x83
                0x0000000000000084                __ADC12MCTL4 = 0x84
                0x0000000000000085                __ADC12MCTL5 = 0x85
                0x0000000000000086                __ADC12MCTL6 = 0x86
                0x0000000000000087                __ADC12MCTL7 = 0x87
                0x0000000000000088                __ADC12MCTL8 = 0x88
                0x0000000000000089                __ADC12MCTL9 = 0x89
                0x000000000000008a                __ADC12MCTL10 = 0x8a
                0x000000000000008b                __ADC12MCTL11 = 0x8b
                0x000000000000008c                __ADC12MCTL12 = 0x8c
                0x000000000000008d                __ADC12MCTL13 = 0x8d
                0x000000000000008e                __ADC12MCTL14 = 0x8e
                0x000000000000008f                __ADC12MCTL15 = 0x8f
                0x00000000000001c0                __DAC12_0CTL = 0x1c0
                0x00000000000001c2                __DAC12_1CTL = 0x1c2
                0x00000000000001c8                __DAC12_0DAT = 0x1c8
                0x00000000000001ca                __DAC12_1DAT = 0x1ca
                0x0000000000000122                __DMACTL0 = 0x122
                0x0000000000000124                __DMACTL1 = 0x124
                0x00000000000001e0                __DMA0CTL = 0x1e0
                0x00000000000001e8                __DMA1CTL = 0x1e8
                0x00000000000001f0                __DMA2CTL = 0x1f0
                0x00000000000001e2                __DMA0SA = 0x1e2
                0x00000000000001e4                __DMA0DA = 0x1e4
                0x00000000000001e6                __DMA0SZ = 0x1e6
                0x00000000000001ea                __DMA1SA = 0x1ea
                0x00000000000001ec                __DMA1DA = 0x1ec
                0x00000000000001ee                __DMA1SZ = 0x1ee
                0x00000000000001f2                __DMA2SA = 0x1f2
                0x00000000000001f4                __DMA2DA = 0x1f4
                0x00000000000001f6                __DMA2SZ = 0x1f6

.hash
 *(.hash)

.dynsym
 *(.dynsym)

.dynstr
 *(.dynstr)

.gnu.version
 *(.gnu.version)

.gnu.version_d
 *(.gnu.version_d)

.gnu.version_r
 *(.gnu.version_r)

.rel.init
 *(.rel.init)

.rela.init
 *(.rela.init)

.rel.fini
 *(.rel.fini)

.rela.fini
 *(.rela.fini)

.rel.text
 *(.rel.text .rel.text.* .rel.gnu.linkonce.t.*)

.rela.text
 *(.rela.text .rela.text.* .rela.gnu.linkonce.t.*)

.rel.rodata
 *(.rel.rodata .rel.rodata.* .rel.gnu.linkonce.r.*)

.rela.rodata
 *(.rela.rodata .rela.rodata.* .rela.gnu.linkonce.r.*)

.rel.data
 *(.rel.data .rel.data.* .rel.gnu.linkonce.d.*)

.rela.data
 *(.rela.data .rela.data.* .rela.gnu.linkonce.d.*)

.rel.bss
 *(.rel.bss .rel.bss.* .rel.gnu.linkonce.b.*)

.rela.bss
 *(.rela.bss .rela.bss.* .rela.gnu.linkonce.b.*)

.rel.ctors
 *(.rel.ctors)

.rela.ctors
 *(.rela.ctors)

.rel.dtors
 *(.rel.dtors)

.rela.dtors
 *(.rela.dtors)

.rel.got
 *(.rel.got)

.rela.got
 *(.rela.got)

.rel.plt
 *(.rel.plt)

.rela.plt
 *(.rela.plt)

.text           0x0000000000004000     0xa732
                0x0000000000004000                . = ALIGN (0x2)
 *(.init .init.*)
 *(.init0)
 .init0         0x0000000000004000        0x0 /opt/mspgcc/bin/../lib/gcc/msp430/4.7.3/mmpy-16/libcrt0.a(_reset_vector__.o)
                0x0000000000004000                _reset_vector__
 *(.init1)
 .init1         0x0000000000004000        0xc /opt/mspgcc/bin/../lib/gcc/msp430/4.7.3/mmpy-16/libcrt0.a(__watchdog_support.o)
                0x0000000000004000                __watchdog_support
 *(.init2)
 .init2         0x000000000000400c        0x4 /opt/mspgcc/bin/../lib/gcc/msp430/4.7.3/mmpy-16/libcrt0.a(__init_stack.o)
                0x000000000000400c                __init_stack
 *(.init3)
 .init3         0x0000000000004010        0x0 /opt/mspgcc/bin/../lib/gcc/msp430/4.7.3/mmpy-16/libcrt0.a(__low_level_init.o)
                0x0000000000004010                __low_level_init
 *(.init4)
 .init4         0x0000000000004010       0x18 /opt/mspgcc/bin/../lib/gcc/msp430/4.7.3/mmpy-16/libcrt0.a(_copy_data.o)
                0x0000000000004010                __do_copy_data
 .init4         0x0000000000004028       0x16 /opt/mspgcc/bin/../lib/gcc/msp430/4.7.3/mmpy-16/libcrt0.a(_clear_bss.o)
                0x0000000000004028                __do_clear_bss
 *(.init5)
 *(.init6)
 *(.init7)
 *(.init8)
 *(.init9)
 .init9         0x000000000000403e      0x232 build/sky/obj/contiki-main.o
                0x000000000000403e                main
 *(.fini9)
 .fini9         0x0000000000004270        0x0 /opt/mspgcc/bin/../lib/gcc/msp430/4.7.3/mmpy-16/libcrt0.a(__stop_progExec__.o)
                0x0000000000004270                __stop_progExec__
 *(.fini8)
 *(.fini7)
 *(.fini6)
 *(.fini5)
 *(.fini4)
 *(.fini3)
 *(.fini2)
 *(.fini1)
 *(.fini0)
 .fini0         0x0000000000004270        0x6 /opt/mspgcc/bin/../lib/gcc/msp430/4.7.3/mmpy-16/libcrt0.a(_endless_loop__.o)
                0x0000000000004270                _endless_loop__
 *(.fini .fini.*)
                0x0000000000004276                . = ALIGN (0x2)
                0x0000000000004276                __ctors_start = .
 *(.ctors)
                0x0000000000004276                __ctors_end = .
                0x0000000000004276                __dtors_start = .
 *(.dtors)
                0x0000000000004276                __dtors_end = .
                0x0000000000004276                . = ALIGN (0x2)
 *(.text .text.* .gnu.linkonce.t.*)
 .text          0x0000000000004276        0x4 /opt/mspgcc/bin/../lib/gcc/msp430/4.7.3/mmpy-16/crt0ivtbl16.o
                0x0000000000004276                __isr_14
                0x0000000000004276                __isr_11
                0x0000000000004276                __isr_2
                0x0000000000004276                __isr_7
                0x0000000000004276                __isr_0
                0x0000000000004276                __isr_8
                0x0000000000004276                __isr_3
                0x0000000000004276                __isr_12
                0x0000000000004276                __isr_13
                0x0000000000004276                __isr_9
 .text.process_thread_contiki_ng_br
                0x000000000000427a       0x32 border-router.o
 .text.putchar  0x00000000000042ac       0x3c build/sky/contiki-ng-sky.a(uart1-putchar.o)
                0x00000000000042ac                putchar
 .text.platform_init_stage_one
                0x00000000000042e8       0x12 build/sky/contiki-ng-sky.a(platform.o)
                0x00000000000042e8                platform_init_stage_one
 .text.platform_init_stage_two
                0x00000000000042fa       0x64 build/sky/contiki-ng-sky.a(platform.o)
                0x00000000000042fa                platform_init_stage_two
 .text.platform_init_stage_three
                0x000000000000435e       0x7a build/sky/contiki-ng-sky.a(platform.o)
                0x000000000000435e                platform_init_stage_three
 .text.platform_idle
                0x00000000000043d8       0x54 build/sky/contiki-ng-sky.a(platform.o)
                0x00000000000043d8                platform_idle
 .text.msp430_init_dco
                0x000000000000442c       0x82 build/sky/contiki-ng-sky.a(msp430.o)
                0x000000000000442c                msp430_init_dco
 .text.msp430_add_lpm_req
                0x00000000000044ae        0xc build/sky/contiki-ng-sky.a(msp430.o)
                0x00000000000044ae                msp430_add_lpm_req
 .text.msp430_cpu_init
                0x00000000000044ba       0x2a build/sky/contiki-ng-sky.a(msp430.o)
                0x00000000000044ba                msp430_cpu_init
 .text.splhigh_
                0x00000000000044e4        0x8 build/sky/contiki-ng-sky.a(msp430.o)
                0x00000000000044e4                splhigh_
 .text.msp430_sync_dco
                0x00000000000044ec       0x6c build/sky/contiki-ng-sky.a(msp430.o)
                0x00000000000044ec                msp430_sync_dco
 .text.timera1  0x0000000000004558       0xdc build/sky/contiki-ng-sky.a(clock.o)
                0x0000000000004558                __isr_5
                0x0000000000004558                timera1
 .text.clock_time
                0x0000000000004634       0x1a build/sky/contiki-ng-sky.a(clock.o)
                0x0000000000004634                clock_time
 .text.clock_init
                0x000000000000464e       0x28 build/sky/contiki-ng-sky.a(clock.o)
                0x000000000000464e                clock_init
 .text.clock_delay
                0x0000000000004676        0xc build/sky/contiki-ng-sky.a(clock.o)
                0x0000000000004676                clock_delay
 .text.clock_seconds
                0x0000000000004682       0x1a build/sky/contiki-ng-sky.a(clock.o)
                0x0000000000004682                clock_seconds
 .text.leds_init
                0x000000000000469c        0x6 build/sky/contiki-ng-sky.a(leds.o)
                0x000000000000469c                leds_init
 .text.leds_on  0x00000000000046a2       0x12 build/sky/contiki-ng-sky.a(leds.o)
                0x00000000000046a2                leds_on
 .text.leds_off
                0x00000000000046b4       0x12 build/sky/contiki-ng-sky.a(leds.o)
                0x00000000000046b4                leds_off
 .text.leds_arch_init
                0x00000000000046c6        0xe build/sky/contiki-ng-sky.a(leds-arch.o)
                0x00000000000046c6                leds_arch_init
 .text.leds_arch_get
                0x00000000000046d4       0x34 build/sky/contiki-ng-sky.a(leds-arch.o)
                0x00000000000046d4                leds_arch_get
 .text.leds_arch_set
                0x0000000000004708       0x3e build/sky/contiki-ng-sky.a(leds-arch.o)
                0x0000000000004708                leds_arch_set
 .text.watchdog_interrupt
                0x0000000000004746        0x6 build/sky/contiki-ng-sky.a(watchdog.o)
                0x0000000000004746                __isr_10
                0x0000000000004746                watchdog_interrupt
 .text.watchdog_start
                0x000000000000474c       0x14 build/sky/contiki-ng-sky.a(watchdog.o)
                0x000000000000474c                watchdog_start
 .text.watchdog_periodic
                0x0000000000004760       0x12 build/sky/contiki-ng-sky.a(watchdog.o)
                0x0000000000004760                watchdog_periodic
 .text.watchdog_stop
                0x0000000000004772       0x16 build/sky/contiki-ng-sky.a(watchdog.o)
                0x0000000000004772                watchdog_stop
 .text.watchdog_init
                0x0000000000004788       0x12 build/sky/contiki-ng-sky.a(watchdog.o)
                0x0000000000004788                watchdog_init
 .text.print_local_addresses
                0x000000000000479a       0x8e build/sky/contiki-ng-sky.a(rpl-border-rout)
                0x000000000000479a                print_local_addresses
 .text.set_prefix_64
                0x0000000000004828       0x16 build/sky/contiki-ng-sky.a(rpl-border-rout)
                0x0000000000004828                set_prefix_64
 .text.rpl_border_router_init
                0x000000000000483e        0xc build/sky/contiki-ng-sky.a(rpl-border-rout)
                0x000000000000483e                rpl_border_router_init
 .text.autostart_start
                0x000000000000484a       0x16 build/sky/contiki-ng-sky.a(autostart.o)
                0x000000000000484a                autostart_start
 .text.process_thread_ctimer_process
                0x0000000000004860       0xa8 build/sky/contiki-ng-sky.a(ctimer.o)
 .text.ctimer_init
                0x0000000000004908       0x18 build/sky/contiki-ng-sky.a(ctimer.o)
                0x0000000000004908                ctimer_init
 .text.ctimer_set_with_process
                0x0000000000004920       0x4e build/sky/contiki-ng-sky.a(ctimer.o)
                0x0000000000004920                ctimer_set_with_process
 .text.ctimer_set
                0x000000000000496e       0x10 build/sky/contiki-ng-sky.a(ctimer.o)
                0x000000000000496e                ctimer_set
 .text.ctimer_reset
                0x000000000000497e       0x30 build/sky/contiki-ng-sky.a(ctimer.o)
                0x000000000000497e                ctimer_reset
 .text.ctimer_stop
                0x00000000000049ae       0x28 build/sky/contiki-ng-sky.a(ctimer.o)
                0x00000000000049ae                ctimer_stop
 .text.ctimer_expired
                0x00000000000049d6       0x30 build/sky/contiki-ng-sky.a(ctimer.o)
                0x00000000000049d6                ctimer_expired
 .text.log_6addr
                0x0000000000004a06       0x32 build/sky/contiki-ng-sky.a(log.o)
                0x0000000000004a06                log_6addr
 .text.log_lladdr
                0x0000000000004a38       0x44 build/sky/contiki-ng-sky.a(log.o)
                0x0000000000004a38                log_lladdr
 .text.energest_init
                0x0000000000004a7c        0x2 build/sky/contiki-ng-sky.a(energest.o)
                0x0000000000004a7c                energest_init
 .text.energest_flush
                0x0000000000004a7e        0x2 build/sky/contiki-ng-sky.a(energest.o)
                0x0000000000004a7e                energest_flush
 .text.update_time
                0x0000000000004a80       0x78 build/sky/contiki-ng-sky.a(etimer.o)
 .text.etimer_request_poll
                0x0000000000004af8        0xa build/sky/contiki-ng-sky.a(etimer.o)
                0x0000000000004af8                etimer_request_poll
 .text.process_thread_etimer_process
                0x0000000000004b02       0xcc build/sky/contiki-ng-sky.a(etimer.o)
 .text.add_timer
                0x0000000000004bce       0x40 build/sky/contiki-ng-sky.a(etimer.o)
 .text.etimer_set
                0x0000000000004c0e       0x12 build/sky/contiki-ng-sky.a(etimer.o)
                0x0000000000004c0e                etimer_set
 .text.etimer_reset
                0x0000000000004c20       0x12 build/sky/contiki-ng-sky.a(etimer.o)
                0x0000000000004c20                etimer_reset
 .text.etimer_expired
                0x0000000000004c32        0xe build/sky/contiki-ng-sky.a(etimer.o)
                0x0000000000004c32                etimer_expired
 .text.etimer_pending
                0x0000000000004c40        0xc build/sky/contiki-ng-sky.a(etimer.o)
                0x0000000000004c40                etimer_pending
 .text.etimer_next_expiration_time
                0x0000000000004c4c       0x16 build/sky/contiki-ng-sky.a(etimer.o)
                0x0000000000004c4c                etimer_next_expiration_time
 .text.etimer_stop
                0x0000000000004c62       0x3e build/sky/contiki-ng-sky.a(etimer.o)
                0x0000000000004c62                etimer_stop
 .text.node_id_init
                0x0000000000004ca0       0x14 build/sky/contiki-ng-sky.a(node-id.o)
                0x0000000000004ca0                node_id_init
 .text.rtimer_init
                0x0000000000004cb4        0x6 build/sky/contiki-ng-sky.a(rtimer.o)
                0x0000000000004cb4                rtimer_init
 .text.rtimer_run_next
                0x0000000000004cba       0x26 build/sky/contiki-ng-sky.a(rtimer.o)
                0x0000000000004cba                rtimer_run_next
 .text.call_process
                0x0000000000004ce0       0x46 build/sky/contiki-ng-sky.a(process.o)
 .text.exit_process
                0x0000000000004d26       0x96 build/sky/contiki-ng-sky.a(process.o)
 .text.do_poll  0x0000000000004dbc       0x30 build/sky/contiki-ng-sky.a(process.o)
 .text.process_alloc_event
                0x0000000000004dec        0xe build/sky/contiki-ng-sky.a(process.o)
                0x0000000000004dec                process_alloc_event
 .text.process_init
                0x0000000000004dfa       0x18 build/sky/contiki-ng-sky.a(process.o)
                0x0000000000004dfa                process_init
 .text.process_run
                0x0000000000004e12       0x92 build/sky/contiki-ng-sky.a(process.o)
                0x0000000000004e12                process_run
 .text.process_nevents
                0x0000000000004ea4        0xe build/sky/contiki-ng-sky.a(process.o)
                0x0000000000004ea4                process_nevents
 .text.process_post
                0x0000000000004eb2       0x42 build/sky/contiki-ng-sky.a(process.o)
                0x0000000000004eb2                process_post
 .text.process_post_synch
                0x0000000000004ef4       0x12 build/sky/contiki-ng-sky.a(process.o)
                0x0000000000004ef4                process_post_synch
 .text.process_start
                0x0000000000004f06       0x36 build/sky/contiki-ng-sky.a(process.o)
                0x0000000000004f06                process_start
 .text.process_poll
                0x0000000000004f3c       0x18 build/sky/contiki-ng-sky.a(process.o)
                0x0000000000004f3c                process_poll
 .text.timer_set
                0x0000000000004f54       0x1c build/sky/contiki-ng-sky.a(timer.o)
                0x0000000000004f54                timer_set
 .text.timer_expired
                0x0000000000004f70       0x2a build/sky/contiki-ng-sky.a(timer.o)
                0x0000000000004f70                timer_expired
 .text.timer_reset
                0x0000000000004f9a       0x1c build/sky/contiki-ng-sky.a(timer.o)
                0x0000000000004f9a                timer_reset
 .text.list_init
                0x0000000000004fb6        0x6 build/sky/contiki-ng-sky.a(list.o)
                0x0000000000004fb6                list_init
 .text.list_head
                0x0000000000004fbc        0x4 build/sky/contiki-ng-sky.a(list.o)
                0x0000000000004fbc                list_head
 .text.list_tail
                0x0000000000004fc0       0x12 build/sky/contiki-ng-sky.a(list.o)
                0x0000000000004fc0                list_tail
 .text.list_remove
                0x0000000000004fd2       0x34 build/sky/contiki-ng-sky.a(list.o)
                0x0000000000004fd2                list_remove
 .text.list_push
                0x0000000000005006       0x1a build/sky/contiki-ng-sky.a(list.o)
                0x0000000000005006                list_push
 .text.list_add
                0x0000000000005020       0x2a build/sky/contiki-ng-sky.a(list.o)
                0x0000000000005020                list_add
 .text.list_length
                0x000000000000504a       0x10 build/sky/contiki-ng-sky.a(list.o)
                0x000000000000504a                list_length
 .text.list_item_next
                0x000000000000505a        0xc build/sky/contiki-ng-sky.a(list.o)
                0x000000000000505a                list_item_next
 .text.random_init
                0x0000000000005066        0x6 build/sky/contiki-ng-sky.a(random.o)
                0x0000000000005066                random_init
 .text.random_rand
                0x000000000000506c        0x6 build/sky/contiki-ng-sky.a(random.o)
                0x000000000000506c                random_rand
 .text.queuebuf_init
                0x0000000000005072       0x12 build/sky/contiki-ng-sky.a(queuebuf.o)
                0x0000000000005072                queuebuf_init
 .text.queuebuf_numfree
                0x0000000000005084        0xa build/sky/contiki-ng-sky.a(queuebuf.o)
                0x0000000000005084                queuebuf_numfree
 .text.queuebuf_new_from_packetbuf
                0x000000000000508e       0x52 build/sky/contiki-ng-sky.a(queuebuf.o)
                0x000000000000508e                queuebuf_new_from_packetbuf
 .text.queuebuf_update_attr_from_packetbuf
                0x00000000000050e0       0x12 build/sky/contiki-ng-sky.a(queuebuf.o)
                0x00000000000050e0                queuebuf_update_attr_from_packetbuf
 .text.queuebuf_free
                0x00000000000050f2       0x2a build/sky/contiki-ng-sky.a(queuebuf.o)
                0x00000000000050f2                queuebuf_free
 .text.queuebuf_to_packetbuf
                0x000000000000511c       0x32 build/sky/contiki-ng-sky.a(queuebuf.o)
                0x000000000000511c                queuebuf_to_packetbuf
 .text.packetbuf_hdrreduce
                0x000000000000514e       0x1a build/sky/contiki-ng-sky.a(packetbuf.o)
                0x000000000000514e                packetbuf_hdrreduce
 .text.packetbuf_set_datalen
                0x0000000000005168        0x6 build/sky/contiki-ng-sky.a(packetbuf.o)
                0x0000000000005168                packetbuf_set_datalen
 .text.packetbuf_hdrptr
                0x000000000000516e        0x6 build/sky/contiki-ng-sky.a(packetbuf.o)
                0x000000000000516e                packetbuf_hdrptr
 .text.packetbuf_datalen
                0x0000000000005174        0x6 build/sky/contiki-ng-sky.a(packetbuf.o)
                0x0000000000005174                packetbuf_datalen
 .text.packetbuf_hdrlen
                0x000000000000517a        0xa build/sky/contiki-ng-sky.a(packetbuf.o)
                0x000000000000517a                packetbuf_hdrlen
 .text.packetbuf_dataptr
                0x0000000000005184        0xc build/sky/contiki-ng-sky.a(packetbuf.o)
                0x0000000000005184                packetbuf_dataptr
 .text.packetbuf_copyto
                0x0000000000005190       0x46 build/sky/contiki-ng-sky.a(packetbuf.o)
                0x0000000000005190                packetbuf_copyto
 .text.packetbuf_totlen
                0x00000000000051d6        0xc build/sky/contiki-ng-sky.a(packetbuf.o)
                0x00000000000051d6                packetbuf_totlen
 .text.packetbuf_hdralloc
                0x00000000000051e2       0x3c build/sky/contiki-ng-sky.a(packetbuf.o)
                0x00000000000051e2                packetbuf_hdralloc
 .text.packetbuf_attr_clear
                0x000000000000521e       0x28 build/sky/contiki-ng-sky.a(packetbuf.o)
                0x000000000000521e                packetbuf_attr_clear
 .text.packetbuf_clear
                0x0000000000005246       0x12 build/sky/contiki-ng-sky.a(packetbuf.o)
                0x0000000000005246                packetbuf_clear
 .text.packetbuf_copyfrom
                0x0000000000005258       0x2e build/sky/contiki-ng-sky.a(packetbuf.o)
                0x0000000000005258                packetbuf_copyfrom
 .text.packetbuf_attr_copyto
                0x0000000000005286       0x22 build/sky/contiki-ng-sky.a(packetbuf.o)
                0x0000000000005286                packetbuf_attr_copyto
 .text.packetbuf_attr_copyfrom
                0x00000000000052a8       0x24 build/sky/contiki-ng-sky.a(packetbuf.o)
                0x00000000000052a8                packetbuf_attr_copyfrom
 .text.packetbuf_set_attr
                0x00000000000052cc        0xc build/sky/contiki-ng-sky.a(packetbuf.o)
                0x00000000000052cc                packetbuf_set_attr
 .text.packetbuf_attr
                0x00000000000052d8        0xa build/sky/contiki-ng-sky.a(packetbuf.o)
                0x00000000000052d8                packetbuf_attr
 .text.packetbuf_set_addr
                0x00000000000052e2       0x18 build/sky/contiki-ng-sky.a(packetbuf.o)
                0x00000000000052e2                packetbuf_set_addr
 .text.packetbuf_addr
                0x00000000000052fa       0x12 build/sky/contiki-ng-sky.a(packetbuf.o)
                0x00000000000052fa                packetbuf_addr
 .text.packetbuf_holds_broadcast
                0x000000000000530c        0xe build/sky/contiki-ng-sky.a(packetbuf.o)
                0x000000000000530c                packetbuf_holds_broadcast
 .text.netstack_process_ip_callback
                0x000000000000531a       0x4e build/sky/contiki-ng-sky.a(netstack.o)
                0x000000000000531a                netstack_process_ip_callback
 .text.netstack_init
                0x0000000000005368        0xe build/sky/contiki-ng-sky.a(netstack.o)
                0x0000000000005368                netstack_init
 .text.linkaddr_copy
                0x0000000000005376        0x8 build/sky/contiki-ng-sky.a(linkaddr.o)
                0x0000000000005376                linkaddr_copy
 .text.linkaddr_cmp
                0x000000000000537e       0x12 build/sky/contiki-ng-sky.a(linkaddr.o)
                0x000000000000537e                linkaddr_cmp
 .text.linkaddr_set_node_addr
                0x0000000000005390        0xc build/sky/contiki-ng-sky.a(linkaddr.o)
                0x0000000000005390                linkaddr_set_node_addr
 .text.on       0x000000000000539c        0x6 build/sky/contiki-ng-sky.a(csma.o)
 .text.off      0x00000000000053a2        0x6 build/sky/contiki-ng-sky.a(csma.o)
 .text.max_payload
                0x00000000000053a8       0x38 build/sky/contiki-ng-sky.a(csma.o)
 .text.send_packet
                0x00000000000053e0        0x6 build/sky/contiki-ng-sky.a(csma.o)
 .text.init     0x00000000000053e6       0x1c build/sky/contiki-ng-sky.a(csma.o)
 .text.input_packet
                0x0000000000005402       0x58 build/sky/contiki-ng-sky.a(csma.o)
 .text.schedule_transmission
                0x000000000000545a       0x70 build/sky/contiki-ng-sky.a(csma-output.o)
 .text.tx_done  0x00000000000054ca       0x9a build/sky/contiki-ng-sky.a(csma-output.o)
 .text.transmit_from_queue
                0x0000000000005564      0x1bc build/sky/contiki-ng-sky.a(csma-output.o)
 .text.csma_output_packet
                0x0000000000005720      0x184 build/sky/contiki-ng-sky.a(csma-output.o)
                0x0000000000005720                csma_output_packet
 .text.csma_output_init
                0x00000000000058a4       0x1a build/sky/contiki-ng-sky.a(csma-output.o)
                0x00000000000058a4                csma_output_init
 .text.uip_ds6_default_prefix
                0x00000000000058be        0x6 build/sky/contiki-ng-sky.a(uip-ds6.o)
                0x00000000000058be                uip_ds6_default_prefix
 .text.uip_ds6_list_loop
                0x00000000000058c4       0x92 build/sky/contiki-ng-sky.a(uip-ds6.o)
                0x00000000000058c4                uip_ds6_list_loop
 .text.uip_ds6_prefix_add
                0x0000000000005956       0x80 build/sky/contiki-ng-sky.a(uip-ds6.o)
                0x0000000000005956                uip_ds6_prefix_add
 .text.uip_ds6_is_addr_onlink
                0x00000000000059d6       0x54 build/sky/contiki-ng-sky.a(uip-ds6.o)
                0x00000000000059d6                uip_ds6_is_addr_onlink
 .text.uip_ds6_addr_lookup
                0x0000000000005a2a       0x2a build/sky/contiki-ng-sky.a(uip-ds6.o)
                0x0000000000005a2a                uip_ds6_addr_lookup
 .text.uip_ds6_get_link_local
                0x0000000000005a54       0x3e build/sky/contiki-ng-sky.a(uip-ds6.o)
                0x0000000000005a54                uip_ds6_get_link_local
 .text.uip_ds6_maddr_add
                0x0000000000005a92       0x4c build/sky/contiki-ng-sky.a(uip-ds6.o)
                0x0000000000005a92                uip_ds6_maddr_add
 .text.uip_ds6_addr_add
                0x0000000000005ade       0xc4 build/sky/contiki-ng-sky.a(uip-ds6.o)
                0x0000000000005ade                uip_ds6_addr_add
 .text.uip_ds6_maddr_rm
                0x0000000000005ba2        0xa build/sky/contiki-ng-sky.a(uip-ds6.o)
                0x0000000000005ba2                uip_ds6_maddr_rm
 .text.uip_ds6_maddr_lookup
                0x0000000000005bac       0x2a build/sky/contiki-ng-sky.a(uip-ds6.o)
                0x0000000000005bac                uip_ds6_maddr_lookup
 .text.uip_ds6_addr_rm
                0x0000000000005bd6       0x54 build/sky/contiki-ng-sky.a(uip-ds6.o)
                0x0000000000005bd6                uip_ds6_addr_rm
 .text.uip_ds6_periodic
                0x0000000000005c2a       0x46 build/sky/contiki-ng-sky.a(uip-ds6.o)
                0x0000000000005c2a                uip_ds6_periodic
 .text.uip_ds6_set_addr_iid
                0x0000000000005c70       0x14 build/sky/contiki-ng-sky.a(uip-ds6.o)
                0x0000000000005c70                uip_ds6_set_addr_iid
 .text.uip_ds6_set_lladdr_from_iid
                0x0000000000005c84       0x14 build/sky/contiki-ng-sky.a(uip-ds6.o)
                0x0000000000005c84                uip_ds6_set_lladdr_from_iid
 .text.get_match_length
                0x0000000000005c98       0x44 build/sky/contiki-ng-sky.a(uip-ds6.o)
                0x0000000000005c98                get_match_length
 .text.uip_ds6_select_src
                0x0000000000005cdc       0xaa build/sky/contiki-ng-sky.a(uip-ds6.o)
                0x0000000000005cdc                uip_ds6_select_src
 .text.uip_ds6_compute_reachable_time
                0x0000000000005d86       0x3e build/sky/contiki-ng-sky.a(uip-ds6.o)
                0x0000000000005d86                uip_ds6_compute_reachable_time
 .text.uip_ds6_init
                0x0000000000005dc4      0x164 build/sky/contiki-ng-sky.a(uip-ds6.o)
                0x0000000000005dc4                uip_ds6_init
 .text.uip_ds6_route_init
                0x0000000000005f28       0x12 build/sky/contiki-ng-sky.a(uip-ds6-route.o)
                0x0000000000005f28                uip_ds6_route_init
 .text.uip_ds6_route_nexthop
                0x0000000000005f3a        0x4 build/sky/contiki-ng-sky.a(uip-ds6-route.o)
                0x0000000000005f3a                uip_ds6_route_nexthop
 .text.uip_ds6_route_lookup
                0x0000000000005f3e        0x4 build/sky/contiki-ng-sky.a(uip-ds6-route.o)
                0x0000000000005f3e                uip_ds6_route_lookup
 .text.uip_ds6_route_rm
                0x0000000000005f42        0x2 build/sky/contiki-ng-sky.a(uip-ds6-route.o)
                0x0000000000005f42                uip_ds6_route_rm
 .text.uip_ds6_defrt_rm
                0x0000000000005f44       0x3c build/sky/contiki-ng-sky.a(uip-ds6-route.o)
                0x0000000000005f44                uip_ds6_defrt_rm
 .text.uip_ds6_defrt_lookup
                0x0000000000005f80       0x40 build/sky/contiki-ng-sky.a(uip-ds6-route.o)
                0x0000000000005f80                uip_ds6_defrt_lookup
 .text.uip_ds6_defrt_add
                0x0000000000005fc0       0x72 build/sky/contiki-ng-sky.a(uip-ds6-route.o)
                0x0000000000005fc0                uip_ds6_defrt_add
 .text.uip_ds6_defrt_choose
                0x0000000000006032       0x3a build/sky/contiki-ng-sky.a(uip-ds6-route.o)
                0x0000000000006032                uip_ds6_defrt_choose
 .text.uip_ds6_defrt_periodic
                0x000000000000606c       0x38 build/sky/contiki-ng-sky.a(uip-ds6-route.o)
                0x000000000000606c                uip_ds6_defrt_periodic
 .text.tcpip_output
                0x00000000000060a4       0x22 build/sky/contiki-ng-sky.a(tcpip.o)
                0x00000000000060a4                tcpip_output
 .text.tcpip_input
                0x00000000000060c6       0x1e build/sky/contiki-ng-sky.a(tcpip.o)
                0x00000000000060c6                tcpip_input
 .text.tcpip_ipv6_output
                0x00000000000060e4      0x162 build/sky/contiki-ng-sky.a(tcpip.o)
                0x00000000000060e4                tcpip_ipv6_output
 .text.packet_input.part.3
                0x0000000000006246       0x12 build/sky/contiki-ng-sky.a(tcpip.o)
 .text.process_thread_tcpip_process
                0x0000000000006258       0xd0 build/sky/contiki-ng-sky.a(tcpip.o)
 .text.tcpip_uipcall
                0x0000000000006328       0x2a build/sky/contiki-ng-sky.a(tcpip.o)
                0x0000000000006328                tcpip_uipcall
 .text.chksum   0x0000000000006352       0x32 build/sky/contiki-ng-sky.a(uip6.o)
 .text.upper_layer_chksum
                0x0000000000006384       0x58 build/sky/contiki-ng-sky.a(uip6.o)
 .text.ext_hdr_options_process
                0x00000000000063dc       0xa4 build/sky/contiki-ng-sky.a(uip6.o)
 .text.uip_check_mtu
                0x0000000000006480       0x1e build/sky/contiki-ng-sky.a(uip6.o)
 .text.uip_update_ttl
                0x000000000000649e       0x24 build/sky/contiki-ng-sky.a(uip6.o)
 .text.uip_icmp6chksum
                0x00000000000064c2        0xa build/sky/contiki-ng-sky.a(uip6.o)
                0x00000000000064c2                uip_icmp6chksum
 .text.uip_udpchksum
                0x00000000000064cc        0xa build/sky/contiki-ng-sky.a(uip6.o)
                0x00000000000064cc                uip_udpchksum
 .text.uip_init
                0x00000000000064d6       0x3c build/sky/contiki-ng-sky.a(uip6.o)
                0x00000000000064d6                uip_init
 .text.uip_remove_ext_hdr
                0x0000000000006512       0x5e build/sky/contiki-ng-sky.a(uip6.o)
                0x0000000000006512                uip_remove_ext_hdr
 .text.uip_process
                0x0000000000006570      0x4be build/sky/contiki-ng-sky.a(uip6.o)
                0x0000000000006570                uip_process
 .text.uip_htonl
                0x0000000000006a2e       0x2e build/sky/contiki-ng-sky.a(uip6.o)
                0x0000000000006a2e                uip_htonl
 .text.uip_ds6_nbr_rm
                0x0000000000006a5c       0x1e build/sky/contiki-ng-sky.a(uip-ds6-nbr.o)
                0x0000000000006a5c                uip_ds6_nbr_rm
 .text.uip_ds6_neighbors_init
                0x0000000000006a7a       0x12 build/sky/contiki-ng-sky.a(uip-ds6-nbr.o)
                0x0000000000006a7a                uip_ds6_neighbors_init
 .text.uip_ds6_nbr_add
                0x0000000000006a8c       0x3e build/sky/contiki-ng-sky.a(uip-ds6-nbr.o)
                0x0000000000006a8c                uip_ds6_nbr_add
 .text.uip_ds6_nbr_get_ll
                0x0000000000006aca        0xc build/sky/contiki-ng-sky.a(uip-ds6-nbr.o)
                0x0000000000006aca                uip_ds6_nbr_get_ll
 .text.uip_ds6_nbr_head
                0x0000000000006ad6        0xa build/sky/contiki-ng-sky.a(uip-ds6-nbr.o)
                0x0000000000006ad6                uip_ds6_nbr_head
 .text.uip_ds6_nbr_next
                0x0000000000006ae0        0xc build/sky/contiki-ng-sky.a(uip-ds6-nbr.o)
                0x0000000000006ae0                uip_ds6_nbr_next
 .text.uip_ds6_nbr_lookup
                0x0000000000006aec       0x3a build/sky/contiki-ng-sky.a(uip-ds6-nbr.o)
                0x0000000000006aec                uip_ds6_nbr_lookup
 .text.uip_ds6_nbr_ll_lookup
                0x0000000000006b26        0xc build/sky/contiki-ng-sky.a(uip-ds6-nbr.o)
                0x0000000000006b26                uip_ds6_nbr_ll_lookup
 .text.uip_ds6_nbr_update_ll
                0x0000000000006b32       0x76 build/sky/contiki-ng-sky.a(uip-ds6-nbr.o)
                0x0000000000006b32                uip_ds6_nbr_update_ll
 .text.uip_ds6_nbr_ipaddr_from_lladdr
                0x0000000000006ba8        0x6 build/sky/contiki-ng-sky.a(uip-ds6-nbr.o)
                0x0000000000006ba8                uip_ds6_nbr_ipaddr_from_lladdr
 .text.uip_ds6_nbr_lladdr_from_ipaddr
                0x0000000000006bae       0x12 build/sky/contiki-ng-sky.a(uip-ds6-nbr.o)
                0x0000000000006bae                uip_ds6_nbr_lladdr_from_ipaddr
 .text.uip_ds6_link_callback
                0x0000000000006bc0        0x2 build/sky/contiki-ng-sky.a(uip-ds6-nbr.o)
                0x0000000000006bc0                uip_ds6_link_callback
 .text.ns_input
                0x0000000000006bc2      0x286 build/sky/contiki-ng-sky.a(uip-nd6.o)
 .text.uip_nd6_init
                0x0000000000006e48        0xa build/sky/contiki-ng-sky.a(uip-nd6.o)
                0x0000000000006e48                uip_nd6_init
 .text.clear_fragments
                0x0000000000006e52       0x40 build/sky/contiki-ng-sky.a(sicslowpan.o)
 .text.addr_context_lookup_by_number
                0x0000000000006e92       0x16 build/sky/contiki-ng-sky.a(sicslowpan.o)
 .text.sicslowpan_init
                0x0000000000006ea8       0x18 build/sky/contiki-ng-sky.a(sicslowpan.o)
                0x0000000000006ea8                sicslowpan_init
 .text.set_packet_attrs
                0x0000000000006ec0       0x66 build/sky/contiki-ng-sky.a(sicslowpan.o)
 .text.compress_addr_64
                0x0000000000006f26       0xae build/sky/contiki-ng-sky.a(sicslowpan.o)
 .text.addr_context_lookup_by_prefix
                0x0000000000006fd4       0x20 build/sky/contiki-ng-sky.a(sicslowpan.o)
 .text.send_packet
                0x0000000000006ff4       0x1a build/sky/contiki-ng-sky.a(sicslowpan.o)
 .text.fragment_copy_payload_and_send
                0x000000000000700e       0x66 build/sky/contiki-ng-sky.a(sicslowpan.o)
 .text.output   0x0000000000007074      0x7c6 build/sky/contiki-ng-sky.a(sicslowpan.o)
 .text.packet_sent
                0x000000000000783a       0x56 build/sky/contiki-ng-sky.a(sicslowpan.o)
 .text.store_fragment
                0x0000000000007890       0xb4 build/sky/contiki-ng-sky.a(sicslowpan.o)
 .text.add_fragment
                0x0000000000007944      0x1fc build/sky/contiki-ng-sky.a(sicslowpan.o)
 .text.uncompress_addr
                0x0000000000007b40       0xb4 build/sky/contiki-ng-sky.a(sicslowpan.o)
 .text.input    0x0000000000007bf4      0x8b0 build/sky/contiki-ng-sky.a(sicslowpan.o)
 .text.uiplib_ip6addrconv
                0x00000000000084a4      0x10c build/sky/contiki-ng-sky.a(uiplib.o)
                0x00000000000084a4                uiplib_ip6addrconv
 .text.uiplib_ipaddr_snprint
                0x00000000000085b0      0x12c build/sky/contiki-ng-sky.a(uiplib.o)
                0x00000000000085b0                uiplib_ipaddr_snprint
 .text.rpl_has_joined
                0x00000000000086dc       0x12 build/sky/contiki-ng-sky.a(rpl.o)
                0x00000000000086dc                rpl_has_joined
 .text.rpl_is_reachable
                0x00000000000086ee       0x12 build/sky/contiki-ng-sky.a(rpl.o)
                0x00000000000086ee                rpl_is_reachable
 .text.neighbor_state_changed
                0x0000000000008700        0x2 build/sky/contiki-ng-sky.a(rpl.o)
 .text.drop_route
                0x0000000000008702        0x2 build/sky/contiki-ng-sky.a(rpl.o)
 .text.rpl_get_leaf_only
                0x0000000000008704        0x6 build/sky/contiki-ng-sky.a(rpl.o)
                0x0000000000008704                rpl_get_leaf_only
 .text.get_sr_node_ipaddr
                0x000000000000870a       0x34 build/sky/contiki-ng-sky.a(rpl.o)
 .text.init     0x000000000000873e       0x42 build/sky/contiki-ng-sky.a(rpl.o)
 .text.set_ip_from_prefix
                0x0000000000008780       0x38 build/sky/contiki-ng-sky.a(rpl.o)
 .text.rpl_link_callback
                0x00000000000087b8       0x1e build/sky/contiki-ng-sky.a(rpl.o)
                0x00000000000087b8                rpl_link_callback
 .text.rpl_lollipop_greater_than
                0x00000000000087d6       0x3c build/sky/contiki-ng-sky.a(rpl.o)
                0x00000000000087d6                rpl_lollipop_greater_than
 .text.rpl_get_global_address
                0x0000000000008812       0xbe build/sky/contiki-ng-sky.a(rpl.o)
                0x0000000000008812                rpl_get_global_address
 .text.rpl_reset_prefix
                0x00000000000088d0       0x24 build/sky/contiki-ng-sky.a(rpl.o)
                0x00000000000088d0                rpl_reset_prefix
 .text.rpl_set_prefix_from_addr
                0x00000000000088f4       0x92 build/sky/contiki-ng-sky.a(rpl.o)
                0x00000000000088f4                rpl_set_prefix_from_addr
 .text.get32    0x0000000000008986       0x46 build/sky/contiki-ng-sky.a(rpl-icmp6.o)
 .text.set32    0x00000000000089cc       0x2a build/sky/contiki-ng-sky.a(rpl-icmp6.o)
 .text.get16    0x00000000000089f6        0xe build/sky/contiki-ng-sky.a(rpl-icmp6.o)
 .text.set16    0x0000000000008a04       0x10 build/sky/contiki-ng-sky.a(rpl-icmp6.o)
 .text.dao_ack_input
                0x0000000000008a14       0x30 build/sky/contiki-ng-sky.a(rpl-icmp6.o)
 .text.dao_input
                0x0000000000008a44      0x13c build/sky/contiki-ng-sky.a(rpl-icmp6.o)
 .text.dio_input
                0x0000000000008b80      0x29c build/sky/contiki-ng-sky.a(rpl-icmp6.o)
 .text.dis_input
                0x0000000000008e1c       0x1e build/sky/contiki-ng-sky.a(rpl-icmp6.o)
 .text.rpl_icmp6_update_nbr_table
                0x0000000000008e3a       0x36 build/sky/contiki-ng-sky.a(rpl-icmp6.o)
                0x0000000000008e3a                rpl_icmp6_update_nbr_table
 .text.rpl_icmp6_dis_output
                0x0000000000008e70       0x34 build/sky/contiki-ng-sky.a(rpl-icmp6.o)
                0x0000000000008e70                rpl_icmp6_dis_output
 .text.rpl_icmp6_dio_output
                0x0000000000008ea4      0x23a build/sky/contiki-ng-sky.a(rpl-icmp6.o)
                0x0000000000008ea4                rpl_icmp6_dio_output
 .text.rpl_icmp6_pdao_output
                0x00000000000090de       0x9a build/sky/contiki-ng-sky.a(rpl-icmp6.o)
                0x00000000000090de                rpl_icmp6_pdao_output
 .text.rpl_icmp6_dao_output
                0x0000000000009178       0xe2 build/sky/contiki-ng-sky.a(rpl-icmp6.o)
                0x0000000000009178                rpl_icmp6_dao_output
 .text.rpl_icmp6_dao_ack_output
                0x000000000000925a       0x4e build/sky/contiki-ng-sky.a(rpl-icmp6.o)
                0x000000000000925a                rpl_icmp6_dao_ack_output
 .text.rpl_icmp6_init
                0x00000000000092a8       0x22 build/sky/contiki-ng-sky.a(rpl-icmp6.o)
                0x00000000000092a8                rpl_icmp6_init
 .text.rpl_dag_root_set_prefix
                0x00000000000092ca       0x62 build/sky/contiki-ng-sky.a(rpl-dag-root.o)
                0x00000000000092ca                rpl_dag_root_set_prefix
 .text.rpl_dag_root_start
                0x000000000000932c       0x8e build/sky/contiki-ng-sky.a(rpl-dag-root.o)
                0x000000000000932c                rpl_dag_root_start
 .text.rpl_dag_root_is_root
                0x00000000000093ba       0x14 build/sky/contiki-ng-sky.a(rpl-dag-root.o)
                0x00000000000093ba                rpl_dag_root_is_root
 .text.output   0x00000000000093ce       0x1c build/sky/contiki-ng-sky.a(slip-bridge.o)
 .text.init     0x00000000000093ea       0x18 build/sky/contiki-ng-sky.a(slip-bridge.o)
 .text.slip_input_callback
                0x0000000000009402       0xb2 build/sky/contiki-ng-sky.a(slip-bridge.o)
 .text.request_prefix
                0x00000000000094b4       0x20 build/sky/contiki-ng-sky.a(slip-bridge.o)
                0x00000000000094b4                request_prefix
 .text.process_thread_border_router_process
                0x00000000000094d4      0x10e build/sky/contiki-ng-sky.a(border-router-e)
 .text.init_platform
                0x00000000000095e2        0xc build/sky/contiki-ng-sky.a(contiki-sky-pla)
                0x00000000000095e2                init_platform
 .text.status   0x00000000000095ee       0x18 build/sky/contiki-ng-sky.a(button-sensor.o)
 .text.value    0x0000000000009606       0x20 build/sky/contiki-ng-sky.a(button-sensor.o)
 .text.configure
                0x0000000000009626       0x4c build/sky/contiki-ng-sky.a(button-sensor.o)
 .text.irq_p2   0x0000000000009672       0x46 build/sky/contiki-ng-sky.a(button-sensor.o)
                0x0000000000009672                irq_p2
                0x0000000000009672                __isr_1
 .text.owreadb  0x00000000000096b8       0x50 build/sky/contiki-ng-sky.a(ds2411.o)
 .text.ds2411_init
                0x0000000000009708      0x120 build/sky/contiki-ng-sky.a(ds2411.o)
                0x0000000000009708                ds2411_init
 .text.xmem_init
                0x0000000000009828       0x3c build/sky/contiki-ng-sky.a(xmem.o)
                0x0000000000009828                xmem_init
 .text.process_thread_sensors_process
                0x0000000000009864       0xc2 build/sky/contiki-ng-sky.a(sensors.o)
 .text.sensors_changed
                0x0000000000009926       0x2a build/sky/contiki-ng-sky.a(sensors.o)
                0x0000000000009926                sensors_changed
 .text.get_object
                0x0000000000009950        0x4 build/sky/contiki-ng-sky.a(cc2420.o)
 .text.set_object
                0x0000000000009954        0x4 build/sky/contiki-ng-sky.a(cc2420.o)
 .text.strobe   0x0000000000009958       0x1c build/sky/contiki-ng-sky.a(cc2420.o)
 .text.getreg   0x0000000000009974       0x4c build/sky/contiki-ng-sky.a(cc2420.o)
 .text.setreg   0x00000000000099c0       0x4c build/sky/contiki-ng-sky.a(cc2420.o)
 .text.write_ram
                0x0000000000009a0c       0x7c build/sky/contiki-ng-sky.a(cc2420.o)
 .text.write_fifo_buf
                0x0000000000009a88       0x3c build/sky/contiki-ng-sky.a(cc2420.o)
 .text.get_status
                0x0000000000009ac4       0x20 build/sky/contiki-ng-sky.a(cc2420.o)
 .text.on       0x0000000000009ae4       0x1a build/sky/contiki-ng-sky.a(cc2420.o)
 .text.cc2420_receiving_packet
                0x0000000000009afe        0xc build/sky/contiki-ng-sky.a(cc2420.o)
 .text.pending_packet
                0x0000000000009b0a        0x8 build/sky/contiki-ng-sky.a(cc2420.o)
 .text.wait_for_transmission
                0x0000000000009b12       0x22 build/sky/contiki-ng-sky.a(cc2420.o)
 .text.wait_for_status
                0x0000000000009b34       0x28 build/sky/contiki-ng-sky.a(cc2420.o)
 .text.getrxdata
                0x0000000000009b5c       0x50 build/sky/contiki-ng-sky.a(cc2420.o)
 .text.flushrx  0x0000000000009bac       0x1a build/sky/contiki-ng-sky.a(cc2420.o)
 .text.off      0x0000000000009bc6       0x28 build/sky/contiki-ng-sky.a(cc2420.o)
 .text.RELEASE_LOCK
                0x0000000000009bee       0x28 build/sky/contiki-ng-sky.a(cc2420.o)
 .text.set_key  0x0000000000009c16       0x18 build/sky/contiki-ng-sky.a(cc2420.o)
 .text.set_frame_filtering
                0x0000000000009c2e       0x30 build/sky/contiki-ng-sky.a(cc2420.o)
 .text.set_auto_ack
                0x0000000000009c5e       0x30 build/sky/contiki-ng-sky.a(cc2420.o)
 .text.set_poll_mode
                0x0000000000009c8e       0x2c build/sky/contiki-ng-sky.a(cc2420.o)
 .text.cc2420_prepare
                0x0000000000009cba       0x46 build/sky/contiki-ng-sky.a(cc2420.o)
 .text.cc2420_on
                0x0000000000009d00       0x22 build/sky/contiki-ng-sky.a(cc2420.o)
                0x0000000000009d00                cc2420_on
 .text.cc2420_transmit
                0x0000000000009d22       0x66 build/sky/contiki-ng-sky.a(cc2420.o)
 .text.cc2420_send
                0x0000000000009d88       0x12 build/sky/contiki-ng-sky.a(cc2420.o)
 .text.cc2420_off
                0x0000000000009d9a       0x30 build/sky/contiki-ng-sky.a(cc2420.o)
                0x0000000000009d9a                cc2420_off
 .text.cc2420_cca
                0x0000000000009dca       0x68 build/sky/contiki-ng-sky.a(cc2420.o)
 .text.cc2420_read
                0x0000000000009e32       0xbe build/sky/contiki-ng-sky.a(cc2420.o)
 .text.process_thread_cc2420_process
                0x0000000000009ef0       0x62 build/sky/contiki-ng-sky.a(cc2420.o)
 .text.encrypt  0x0000000000009f52       0x88 build/sky/contiki-ng-sky.a(cc2420.o)
 .text.cc2420_set_channel
                0x0000000000009fda       0x3c build/sky/contiki-ng-sky.a(cc2420.o)
                0x0000000000009fda                cc2420_set_channel
 .text.cc2420_set_pan_addr
                0x000000000000a016       0x4c build/sky/contiki-ng-sky.a(cc2420.o)
                0x000000000000a016                cc2420_set_pan_addr
 .text.cc2420_interrupt
                0x000000000000a062       0x16 build/sky/contiki-ng-sky.a(cc2420.o)
                0x000000000000a062                cc2420_interrupt
 .text.cc2420_set_txpower
                0x000000000000a078       0x2c build/sky/contiki-ng-sky.a(cc2420.o)
                0x000000000000a078                cc2420_set_txpower
 .text.cc2420_get_txpower
                0x000000000000a0a4       0x1e build/sky/contiki-ng-sky.a(cc2420.o)
                0x000000000000a0a4                cc2420_get_txpower
 .text.cc2420_rssi
                0x000000000000a0c2       0x4c build/sky/contiki-ng-sky.a(cc2420.o)
                0x000000000000a0c2                cc2420_rssi
 .text.get_value
                0x000000000000a10e      0x11e build/sky/contiki-ng-sky.a(cc2420.o)
 .text.cc2420_set_cca_threshold
                0x000000000000a22c       0x16 build/sky/contiki-ng-sky.a(cc2420.o)
                0x000000000000a22c                cc2420_set_cca_threshold
 .text.set_value
                0x000000000000a242      0x150 build/sky/contiki-ng-sky.a(cc2420.o)
 .text.cc2420_init
                0x000000000000a392       0xea build/sky/contiki-ng-sky.a(cc2420.o)
                0x000000000000a392                cc2420_init
 .text.cc2420_port1_interrupt
                0x000000000000a47c       0x20 build/sky/contiki-ng-sky.a(cc2420-arch.o)
                0x000000000000a47c                __isr_4
                0x000000000000a47c                cc2420_port1_interrupt
 .text.cc2420_arch_init
                0x000000000000a49c       0x1a build/sky/contiki-ng-sky.a(cc2420-arch.o)
                0x000000000000a49c                cc2420_arch_init
 .text.handle_rxdma_timer
                0x000000000000a4b6       0x3a build/sky/contiki-ng-sky.a(uart1.o)
 .text.uart1_active
                0x000000000000a4f0       0x18 build/sky/contiki-ng-sky.a(uart1.o)
                0x000000000000a4f0                uart1_active
 .text.uart1_set_input
                0x000000000000a508       0x20 build/sky/contiki-ng-sky.a(uart1.o)
                0x000000000000a508                uart1_set_input
 .text.uart1_writeb
                0x000000000000a528       0x18 build/sky/contiki-ng-sky.a(uart1.o)
                0x000000000000a528                uart1_writeb
 .text.uart1_init
                0x000000000000a540       0xf4 build/sky/contiki-ng-sky.a(uart1.o)
                0x000000000000a540                uart1_init
 .text.slip_arch_writeb
                0x000000000000a634        0x6 build/sky/contiki-ng-sky.a(slip_uart1.o)
                0x000000000000a634                slip_arch_writeb
 .text.slip_arch_init
                0x000000000000a63a        0xa build/sky/contiki-ng-sky.a(slip_uart1.o)
                0x000000000000a63a                slip_arch_init
 .text.process_thread_slip_process
                0x000000000000a644      0x1c2 build/sky/contiki-ng-sky.a(slip.o)
 .text.slip_set_input_callback
                0x000000000000a806        0x6 build/sky/contiki-ng-sky.a(slip.o)
                0x000000000000a806                slip_set_input_callback
 .text.slip_write
                0x000000000000a80c       0x58 build/sky/contiki-ng-sky.a(slip.o)
                0x000000000000a80c                slip_write
 .text.slip_send
                0x000000000000a864        0xe build/sky/contiki-ng-sky.a(slip.o)
                0x000000000000a864                slip_send
 .text.slip_input_byte
                0x000000000000a872       0x96 build/sky/contiki-ng-sky.a(slip.o)
                0x000000000000a872                slip_input_byte
 .text.timera0  0x000000000000a908       0x2e build/sky/contiki-ng-sky.a(rtimer-arch.o)
                0x000000000000a908                __isr_6
                0x000000000000a908                timera0
 .text.rtimer_arch_init
                0x000000000000a936        0xe build/sky/contiki-ng-sky.a(rtimer-arch.o)
                0x000000000000a936                rtimer_arch_init
 .text.rtimer_arch_now
                0x000000000000a944        0xe build/sky/contiki-ng-sky.a(rtimer-arch.o)
                0x000000000000a944                rtimer_arch_now
 .text.rtimer_arch_schedule
                0x000000000000a952        0x6 build/sky/contiki-ng-sky.a(rtimer-arch.o)
                0x000000000000a952                rtimer_arch_schedule
 .text.stimer_set
                0x000000000000a958       0x1c build/sky/contiki-ng-sky.a(stimer.o)
                0x000000000000a958                stimer_set
 .text.stimer_expired
                0x000000000000a974       0x30 build/sky/contiki-ng-sky.a(stimer.o)
                0x000000000000a974                stimer_expired
 .text.memb_init
                0x000000000000a9a4       0x36 build/sky/contiki-ng-sky.a(memb.o)
                0x000000000000a9a4                memb_init
 .text.memb_alloc
                0x000000000000a9da       0x3e build/sky/contiki-ng-sky.a(memb.o)
                0x000000000000a9da                memb_alloc
 .text.memb_free
                0x000000000000aa18       0x32 build/sky/contiki-ng-sky.a(memb.o)
                0x000000000000aa18                memb_free
 .text.memb_inmemb
                0x000000000000aa4a       0x2a build/sky/contiki-ng-sky.a(memb.o)
                0x000000000000aa4a                memb_inmemb
 .text.memb_numfree
                0x000000000000aa74       0x26 build/sky/contiki-ng-sky.a(memb.o)
                0x000000000000aa74                memb_numfree
 .text.item_from_index
                0x000000000000aa9a       0x2a build/sky/contiki-ng-sky.a(nbr-table.o)
 .text.index_from_key
                0x000000000000aac4       0x26 build/sky/contiki-ng-sky.a(nbr-table.o)
 .text.index_from_item
                0x000000000000aaea       0x1e build/sky/contiki-ng-sky.a(nbr-table.o)
 .text.nbr_set_bit
                0x000000000000ab08       0x58 build/sky/contiki-ng-sky.a(nbr-table.o)
 .text.index_from_lladdr
                0x000000000000ab60       0x42 build/sky/contiki-ng-sky.a(nbr-table.o)
 .text.nbr_get_bit.constprop.0
                0x000000000000aba2       0x2e build/sky/contiki-ng-sky.a(nbr-table.o)
 .text.nbr_table_is_registered
                0x000000000000abd0       0x22 build/sky/contiki-ng-sky.a(nbr-table.o)
                0x000000000000abd0                nbr_table_is_registered
 .text.nbr_table_register
                0x000000000000abf2       0x40 build/sky/contiki-ng-sky.a(nbr-table.o)
                0x000000000000abf2                nbr_table_register
 .text.nbr_table_next
                0x000000000000ac32       0x54 build/sky/contiki-ng-sky.a(nbr-table.o)
                0x000000000000ac32                nbr_table_next
 .text.nbr_table_head
                0x000000000000ac86       0x3a build/sky/contiki-ng-sky.a(nbr-table.o)
                0x000000000000ac86                nbr_table_head
 .text.nbr_table_add_lladdr
                0x000000000000acc0      0x168 build/sky/contiki-ng-sky.a(nbr-table.o)
                0x000000000000acc0                nbr_table_add_lladdr
 .text.nbr_table_get_from_lladdr
                0x000000000000ae28       0x2c build/sky/contiki-ng-sky.a(nbr-table.o)
                0x000000000000ae28                nbr_table_get_from_lladdr
 .text.nbr_table_remove
                0x000000000000ae54       0x32 build/sky/contiki-ng-sky.a(nbr-table.o)
                0x000000000000ae54                nbr_table_remove
 .text.nbr_table_lock
                0x000000000000ae86       0x10 build/sky/contiki-ng-sky.a(nbr-table.o)
                0x000000000000ae86                nbr_table_lock
 .text.nbr_table_unlock
                0x000000000000ae96       0x10 build/sky/contiki-ng-sky.a(nbr-table.o)
                0x000000000000ae96                nbr_table_unlock
 .text.nbr_table_get_lladdr
                0x000000000000aea6       0x22 build/sky/contiki-ng-sky.a(nbr-table.o)
                0x000000000000aea6                nbr_table_get_lladdr
 .text.periodic
                0x000000000000aec8       0x28 build/sky/contiki-ng-sky.a(link-stats.o)
 .text.link_stats_from_lladdr
                0x000000000000aef0        0xc build/sky/contiki-ng-sky.a(link-stats.o)
                0x000000000000aef0                link_stats_from_lladdr
 .text.link_stats_is_fresh
                0x000000000000aefc       0x30 build/sky/contiki-ng-sky.a(link-stats.o)
                0x000000000000aefc                link_stats_is_fresh
 .text.guess_etx_from_rssi
                0x000000000000af2c       0x42 build/sky/contiki-ng-sky.a(link-stats.o)
                0x000000000000af2c                guess_etx_from_rssi
 .text.link_stats_packet_sent
                0x000000000000af6e       0xde build/sky/contiki-ng-sky.a(link-stats.o)
                0x000000000000af6e                link_stats_packet_sent
 .text.link_stats_input_callback
                0x000000000000b04c       0xb4 build/sky/contiki-ng-sky.a(link-stats.o)
                0x000000000000b04c                link_stats_input_callback
 .text.link_stats_reset
                0x000000000000b100       0x2a build/sky/contiki-ng-sky.a(link-stats.o)
                0x000000000000b100                link_stats_reset
 .text.link_stats_init
                0x000000000000b12a       0x22 build/sky/contiki-ng-sky.a(link-stats.o)
                0x000000000000b12a                link_stats_init
 .text.mac_sequence_is_duplicate
                0x000000000000b14c       0x84 build/sky/contiki-ng-sky.a(mac-sequence.o)
                0x000000000000b14c                mac_sequence_is_duplicate
 .text.mac_sequence_register_seqno
                0x000000000000b1d0       0x90 build/sky/contiki-ng-sky.a(mac-sequence.o)
                0x000000000000b1d0                mac_sequence_register_seqno
 .text.mac_call_sent_callback
                0x000000000000b260       0x14 build/sky/contiki-ng-sky.a(mac.o)
                0x000000000000b260                mac_call_sent_callback
 .text.parse    0x000000000000b274       0xa0 build/sky/contiki-ng-sky.a(framer-802154.o)
 .text.framer_802154_setup_params
                0x000000000000b314       0xb8 build/sky/contiki-ng-sky.a(framer-802154.o)
                0x000000000000b314                framer_802154_setup_params
 .text.create_frame
                0x000000000000b3cc       0xde build/sky/contiki-ng-sky.a(framer-802154.o)
 .text.create   0x000000000000b4aa        0x8 build/sky/contiki-ng-sky.a(framer-802154.o)
 .text.hdr_length
                0x000000000000b4b2        0x8 build/sky/contiki-ng-sky.a(framer-802154.o)
 .text.frame802154_get_pan_id
                0x000000000000b4ba        0x6 build/sky/contiki-ng-sky.a(frame802154.o)
                0x000000000000b4ba                frame802154_get_pan_id
 .text.frame802154_has_panid
                0x000000000000b4c0       0xe0 build/sky/contiki-ng-sky.a(frame802154.o)
                0x000000000000b4c0                frame802154_has_panid
 .text.field_len
                0x000000000000b5a0       0xac build/sky/contiki-ng-sky.a(frame802154.o)
 .text.frame802154_is_broadcast_addr
                0x000000000000b64c       0x28 build/sky/contiki-ng-sky.a(frame802154.o)
                0x000000000000b64c                frame802154_is_broadcast_addr
 .text.frame802154_hdrlen
                0x000000000000b674       0x32 build/sky/contiki-ng-sky.a(frame802154.o)
                0x000000000000b674                frame802154_hdrlen
 .text.frame802154_create_fcf
                0x000000000000b6a6       0x96 build/sky/contiki-ng-sky.a(frame802154.o)
                0x000000000000b6a6                frame802154_create_fcf
 .text.frame802154_create
                0x000000000000b73c       0xe4 build/sky/contiki-ng-sky.a(frame802154.o)
                0x000000000000b73c                frame802154_create
 .text.frame802154_parse_fcf
                0x000000000000b820       0xbc build/sky/contiki-ng-sky.a(frame802154.o)
                0x000000000000b820                frame802154_parse_fcf
 .text.frame802154_parse
                0x000000000000b8dc      0x168 build/sky/contiki-ng-sky.a(frame802154.o)
                0x000000000000b8dc                frame802154_parse
 .text.csma_security_create_frame
                0x000000000000ba44       0x10 build/sky/contiki-ng-sky.a(csma-security.o)
                0x000000000000ba44                csma_security_create_frame
 .text.csma_security_parse_frame
                0x000000000000ba54        0x6 build/sky/contiki-ng-sky.a(csma-security.o)
                0x000000000000ba54                csma_security_parse_frame
 .text.uipbuf_add_ext_hdr
                0x000000000000ba5a       0x1c build/sky/contiki-ng-sky.a(uipbuf.o)
                0x000000000000ba5a                uipbuf_add_ext_hdr
 .text.uipbuf_set_len
                0x000000000000ba76       0x12 build/sky/contiki-ng-sky.a(uipbuf.o)
                0x000000000000ba76                uipbuf_set_len
 .text.uipbuf_set_len_field
                0x000000000000ba88        0xe build/sky/contiki-ng-sky.a(uipbuf.o)
                0x000000000000ba88                uipbuf_set_len_field
 .text.uipbuf_get_len_field
                0x000000000000ba96        0xe build/sky/contiki-ng-sky.a(uipbuf.o)
                0x000000000000ba96                uipbuf_get_len_field
 .text.uipbuf_get_next_header
                0x000000000000baa4       0x62 build/sky/contiki-ng-sky.a(uipbuf.o)
                0x000000000000baa4                uipbuf_get_next_header
 .text.uipbuf_get_last_header
                0x000000000000bb06       0x3e build/sky/contiki-ng-sky.a(uipbuf.o)
                0x000000000000bb06                uipbuf_get_last_header
 .text.uipbuf_search_header
                0x000000000000bb44       0x4e build/sky/contiki-ng-sky.a(uipbuf.o)
                0x000000000000bb44                uipbuf_search_header
 .text.uipbuf_get_attr
                0x000000000000bb92       0x14 build/sky/contiki-ng-sky.a(uipbuf.o)
                0x000000000000bb92                uipbuf_get_attr
 .text.uipbuf_clear_attr
                0x000000000000bba6       0x12 build/sky/contiki-ng-sky.a(uipbuf.o)
                0x000000000000bba6                uipbuf_clear_attr
 .text.uipbuf_clear
                0x000000000000bbb8       0x12 build/sky/contiki-ng-sky.a(uipbuf.o)
                0x000000000000bbb8                uipbuf_clear
 .text.uipbuf_init
                0x000000000000bbca       0x1a build/sky/contiki-ng-sky.a(uipbuf.o)
                0x000000000000bbca                uipbuf_init
 .text.echo_reply_input
                0x000000000000bbe4       0x68 build/sky/contiki-ng-sky.a(uip-icmp6.o)
 .text.echo_request_input
                0x000000000000bc4c       0x86 build/sky/contiki-ng-sky.a(uip-icmp6.o)
 .text.uip_icmp6_input
                0x000000000000bcd2       0x48 build/sky/contiki-ng-sky.a(uip-icmp6.o)
                0x000000000000bcd2                uip_icmp6_input
 .text.uip_icmp6_register_input_handler
                0x000000000000bd1a        0xc build/sky/contiki-ng-sky.a(uip-icmp6.o)
                0x000000000000bd1a                uip_icmp6_register_input_handler
 .text.uip_icmp6_error_output
                0x000000000000bd26      0x146 build/sky/contiki-ng-sky.a(uip-icmp6.o)
                0x000000000000bd26                uip_icmp6_error_output
 .text.uip_icmp6_send
                0x000000000000be6c       0x8e build/sky/contiki-ng-sky.a(uip-icmp6.o)
                0x000000000000be6c                uip_icmp6_send
 .text.uip_icmp6_init
                0x000000000000befa       0x12 build/sky/contiki-ng-sky.a(uip-icmp6.o)
                0x000000000000befa                uip_icmp6_init
 .text.node_matches_address.part.0
                0x000000000000bf0c       0x2e build/sky/contiki-ng-sky.a(uip-sr.o)
 .text.uip_sr_get_node
                0x000000000000bf3a       0x44 build/sky/contiki-ng-sky.a(uip-sr.o)
                0x000000000000bf3a                uip_sr_get_node
 .text.uip_sr_is_addr_reachable
                0x000000000000bf7e       0x4e build/sky/contiki-ng-sky.a(uip-sr.o)
                0x000000000000bf7e                uip_sr_is_addr_reachable
 .text.uip_sr_expire_parent
                0x000000000000bfcc       0x42 build/sky/contiki-ng-sky.a(uip-sr.o)
                0x000000000000bfcc                uip_sr_expire_parent
 .text.uip_sr_update_node
                0x000000000000c00e       0xbc build/sky/contiki-ng-sky.a(uip-sr.o)
                0x000000000000c00e                uip_sr_update_node
 .text.uip_sr_init
                0x000000000000c0ca       0x16 build/sky/contiki-ng-sky.a(uip-sr.o)
                0x000000000000c0ca                uip_sr_init
 .text.uip_sr_periodic
                0x000000000000c0e0       0x9a build/sky/contiki-ng-sky.a(uip-sr.o)
                0x000000000000c0e0                uip_sr_periodic
 .text.uip_sr_free_all
                0x000000000000c17a       0x3c build/sky/contiki-ng-sky.a(uip-sr.o)
                0x000000000000c17a                uip_sr_free_all
 .text.update_state
                0x000000000000c1b6       0x78 build/sky/contiki-ng-sky.a(rpl-nbr-policy.)
 .text.rpl_nbr_policy_find_removable
                0x000000000000c22e       0x50 build/sky/contiki-ng-sky.a(rpl-nbr-policy.)
                0x000000000000c22e                rpl_nbr_policy_find_removable
 .text.remove_neighbor
                0x000000000000c27e       0x24 build/sky/contiki-ng-sky.a(rpl-neighbor.o)
 .text.rpl_neighbor_get_from_lladdr
                0x000000000000c2a2        0xc build/sky/contiki-ng-sky.a(rpl-neighbor.o)
                0x000000000000c2a2                rpl_neighbor_get_from_lladdr
 .text.rpl_neighbor_rank_via_nbr
                0x000000000000c2ae       0x18 build/sky/contiki-ng-sky.a(rpl-neighbor.o)
                0x000000000000c2ae                rpl_neighbor_rank_via_nbr
 .text.rpl_neighbor_get_lladdr
                0x000000000000c2c6        0xc build/sky/contiki-ng-sky.a(rpl-neighbor.o)
                0x000000000000c2c6                rpl_neighbor_get_lladdr
 .text.rpl_neighbor_get_ipaddr
                0x000000000000c2d2        0xa build/sky/contiki-ng-sky.a(rpl-neighbor.o)
                0x000000000000c2d2                rpl_neighbor_get_ipaddr
 .text.rpl_neighbor_get_link_stats
                0x000000000000c2dc        0xa build/sky/contiki-ng-sky.a(rpl-neighbor.o)
                0x000000000000c2dc                rpl_neighbor_get_link_stats
 .text.rpl_neighbor_is_fresh
                0x000000000000c2e6        0xa build/sky/contiki-ng-sky.a(rpl-neighbor.o)
                0x000000000000c2e6                rpl_neighbor_is_fresh
 .text.best_parent
                0x000000000000c2f0       0xb4 build/sky/contiki-ng-sky.a(rpl-neighbor.o)
 .text.rpl_neighbor_is_parent
                0x000000000000c3a4       0x18 build/sky/contiki-ng-sky.a(rpl-neighbor.o)
                0x000000000000c3a4                rpl_neighbor_is_parent
 .text.rpl_neighbor_set_preferred_parent
                0x000000000000c3bc       0x48 build/sky/contiki-ng-sky.a(rpl-neighbor.o)
                0x000000000000c3bc                rpl_neighbor_set_preferred_parent
 .text.rpl_neighbor_remove_all
                0x000000000000c404       0x30 build/sky/contiki-ng-sky.a(rpl-neighbor.o)
                0x000000000000c404                rpl_neighbor_remove_all
 .text.rpl_neighbor_get_from_ipaddr
                0x000000000000c434       0x14 build/sky/contiki-ng-sky.a(rpl-neighbor.o)
                0x000000000000c434                rpl_neighbor_get_from_ipaddr
 .text.rpl_neighbor_select_best
                0x000000000000c448       0x54 build/sky/contiki-ng-sky.a(rpl-neighbor.o)
                0x000000000000c448                rpl_neighbor_select_best
 .text.rpl_neighbor_init
                0x000000000000c49c        0xe build/sky/contiki-ng-sky.a(rpl-neighbor.o)
                0x000000000000c49c                rpl_neighbor_init
 .text.init_dag
                0x000000000000c4aa       0x84 build/sky/contiki-ng-sky.a(rpl-dag.o)
 .text.process_dio_init_dag
                0x000000000000c52e       0xb0 build/sky/contiki-ng-sky.a(rpl-dag.o)
 .text.rpl_dag_get_root_ipaddr
                0x000000000000c5de       0x1e build/sky/contiki-ng-sky.a(rpl-dag.o)
                0x000000000000c5de                rpl_dag_get_root_ipaddr
 .text.rpl_dag_leave
                0x000000000000c5fc       0x4a build/sky/contiki-ng-sky.a(rpl-dag.o)
                0x000000000000c5fc                rpl_dag_leave
 .text.rpl_dag_poison_and_leave
                0x000000000000c646        0xc build/sky/contiki-ng-sky.a(rpl-dag.o)
                0x000000000000c646                rpl_dag_poison_and_leave
 .text.rpl_dag_periodic
                0x000000000000c652       0x6a build/sky/contiki-ng-sky.a(rpl-dag.o)
                0x000000000000c652                rpl_dag_periodic
 .text.rpl_is_addr_in_our_dag
                0x000000000000c6bc       0x34 build/sky/contiki-ng-sky.a(rpl-dag.o)
                0x000000000000c6bc                rpl_is_addr_in_our_dag
 .text.rpl_local_repair
                0x000000000000c6f0       0x2a build/sky/contiki-ng-sky.a(rpl-dag.o)
                0x000000000000c6f0                rpl_local_repair
 .text.rpl_global_repair
                0x000000000000c71a       0x2e build/sky/contiki-ng-sky.a(rpl-dag.o)
                0x000000000000c71a                rpl_global_repair
 .text.rpl_dag_ready_to_advertise
                0x000000000000c748       0x22 build/sky/contiki-ng-sky.a(rpl-dag.o)
                0x000000000000c748                rpl_dag_ready_to_advertise
 .text.rpl_dag_update_state
                0x000000000000c76a      0x140 build/sky/contiki-ng-sky.a(rpl-dag.o)
                0x000000000000c76a                rpl_dag_update_state
 .text.rpl_process_dio
                0x000000000000c8aa      0x1b6 build/sky/contiki-ng-sky.a(rpl-dag.o)
                0x000000000000c8aa                rpl_process_dio
 .text.rpl_process_dis
                0x000000000000ca60       0x2a build/sky/contiki-ng-sky.a(rpl-dag.o)
                0x000000000000ca60                rpl_process_dis
 .text.rpl_process_dao
                0x000000000000ca8a       0x6c build/sky/contiki-ng-sky.a(rpl-dag.o)
                0x000000000000ca8a                rpl_process_dao
 .text.rpl_process_dao_ack
                0x000000000000caf6       0x54 build/sky/contiki-ng-sky.a(rpl-dag.o)
                0x000000000000caf6                rpl_process_dao_ack
 .text.rpl_process_hbh
                0x000000000000cb4a       0x2e build/sky/contiki-ng-sky.a(rpl-dag.o)
                0x000000000000cb4a                rpl_process_hbh
 .text.rpl_dag_init_root
                0x000000000000cb78       0xbc build/sky/contiki-ng-sky.a(rpl-dag.o)
                0x000000000000cb78                rpl_dag_init_root
 .text.rpl_dag_init
                0x000000000000cc34       0x10 build/sky/contiki-ng-sky.a(rpl-dag.o)
                0x000000000000cc34                rpl_dag_init
 .text.handle_state_update
                0x000000000000cc44        0x6 build/sky/contiki-ng-sky.a(rpl-timers.o)
 .text.handle_leaving_timer
                0x000000000000cc4a        0xc build/sky/contiki-ng-sky.a(rpl-timers.o)
 .text.schedule_dao_retransmission
                0x000000000000cc56       0x34 build/sky/contiki-ng-sky.a(rpl-timers.o)
 .text.new_dio_interval
                0x000000000000cc8a       0x8a build/sky/contiki-ng-sky.a(rpl-timers.o)
 .text.handle_unicast_dio_timer
                0x000000000000cd14       0x12 build/sky/contiki-ng-sky.a(rpl-timers.o)
 .text.send_new_dao
                0x000000000000cd26       0x30 build/sky/contiki-ng-sky.a(rpl-timers.o)
 .text.resend_dao
                0x000000000000cd56       0x24 build/sky/contiki-ng-sky.a(rpl-timers.o)
 .text.handle_dao_ack_timer
                0x000000000000cd7a       0x12 build/sky/contiki-ng-sky.a(rpl-timers.o)
 .text.handle_dio_timer
                0x000000000000cd8c       0x6e build/sky/contiki-ng-sky.a(rpl-timers.o)
 .text.rpl_timers_schedule_periodic_dis
                0x000000000000cdfa       0x40 build/sky/contiki-ng-sky.a(rpl-timers.o)
                0x000000000000cdfa                rpl_timers_schedule_periodic_dis
 .text.handle_periodic_timer
                0x000000000000ce3a       0x3a build/sky/contiki-ng-sky.a(rpl-timers.o)
 .text.handle_dis_timer
                0x000000000000ce74       0x26 build/sky/contiki-ng-sky.a(rpl-timers.o)
 .text.rpl_timers_dio_reset
                0x000000000000ce9a       0x2e build/sky/contiki-ng-sky.a(rpl-timers.o)
                0x000000000000ce9a                rpl_timers_dio_reset
 .text.rpl_timers_schedule_unicast_dio
                0x000000000000cec8       0x20 build/sky/contiki-ng-sky.a(rpl-timers.o)
                0x000000000000cec8                rpl_timers_schedule_unicast_dio
 .text.rpl_timers_schedule_dao
                0x000000000000cee8       0x3c build/sky/contiki-ng-sky.a(rpl-timers.o)
                0x000000000000cee8                rpl_timers_schedule_dao
 .text.rpl_timers_schedule_dao_ack
                0x000000000000cf24       0x34 build/sky/contiki-ng-sky.a(rpl-timers.o)
                0x000000000000cf24                rpl_timers_schedule_dao_ack
 .text.rpl_timers_notify_dao_ack
                0x000000000000cf58       0x82 build/sky/contiki-ng-sky.a(rpl-timers.o)
                0x000000000000cf58                rpl_timers_notify_dao_ack
 .text.get_probing_delay
                0x000000000000cfda       0x1c build/sky/contiki-ng-sky.a(rpl-timers.o)
                0x000000000000cfda                get_probing_delay
 .text.get_probing_target
                0x000000000000cff6       0xee build/sky/contiki-ng-sky.a(rpl-timers.o)
                0x000000000000cff6                get_probing_target
 .text.rpl_schedule_probing
                0x000000000000d0e4       0x20 build/sky/contiki-ng-sky.a(rpl-timers.o)
                0x000000000000d0e4                rpl_schedule_probing
 .text.handle_probing_timer
                0x000000000000d104       0x2a build/sky/contiki-ng-sky.a(rpl-timers.o)
 .text.rpl_schedule_probing_now
                0x000000000000d12e       0x24 build/sky/contiki-ng-sky.a(rpl-timers.o)
                0x000000000000d12e                rpl_schedule_probing_now
 .text.rpl_timers_unschedule_leaving
                0x000000000000d152       0x1c build/sky/contiki-ng-sky.a(rpl-timers.o)
                0x000000000000d152                rpl_timers_unschedule_leaving
 .text.rpl_timers_schedule_leaving
                0x000000000000d16e       0x2a build/sky/contiki-ng-sky.a(rpl-timers.o)
                0x000000000000d16e                rpl_timers_schedule_leaving
 .text.rpl_timers_init
                0x000000000000d198       0x1c build/sky/contiki-ng-sky.a(rpl-timers.o)
                0x000000000000d198                rpl_timers_init
 .text.rpl_timers_stop_dag_timers
                0x000000000000d1b4       0x4c build/sky/contiki-ng-sky.a(rpl-timers.o)
                0x000000000000d1b4                rpl_timers_stop_dag_timers
 .text.rpl_timers_unschedule_state_update
                0x000000000000d200       0x10 build/sky/contiki-ng-sky.a(rpl-timers.o)
                0x000000000000d200                rpl_timers_unschedule_state_update
 .text.rpl_timers_schedule_state_update
                0x000000000000d210       0x1c build/sky/contiki-ng-sky.a(rpl-timers.o)
                0x000000000000d210                rpl_timers_schedule_state_update
 .text.update_hbh_header
                0x000000000000d22c       0x4a build/sky/contiki-ng-sky.a(rpl-ext-header.)
 .text.rpl_ext_header_srh_get_next_hop
                0x000000000000d276       0x84 build/sky/contiki-ng-sky.a(rpl-ext-header.)
                0x000000000000d276                rpl_ext_header_srh_get_next_hop
 .text.rpl_ext_header_srh_update
                0x000000000000d2fa      0x102 build/sky/contiki-ng-sky.a(rpl-ext-header.)
                0x000000000000d2fa                rpl_ext_header_srh_update
 .text.rpl_ext_header_hbh_update
                0x000000000000d3fc       0x9e build/sky/contiki-ng-sky.a(rpl-ext-header.)
                0x000000000000d3fc                rpl_ext_header_hbh_update
 .text.rpl_ext_header_remove
                0x000000000000d49a       0xcc build/sky/contiki-ng-sky.a(rpl-ext-header.)
                0x000000000000d49a                rpl_ext_header_remove
 .text.rpl_ext_header_update
                0x000000000000d566      0x2aa build/sky/contiki-ng-sky.a(rpl-ext-header.)
                0x000000000000d566                rpl_ext_header_update
 .text.reset    0x000000000000d810        0x2 build/sky/contiki-ng-sky.a(rpl-mrhof.o)
 .text.update_metric_container
                0x000000000000d812        0x6 build/sky/contiki-ng-sky.a(rpl-mrhof.o)
 .text.nbr_link_metric
                0x000000000000d818       0x12 build/sky/contiki-ng-sky.a(rpl-mrhof.o)
 .text.nbr_has_usable_link
                0x000000000000d82a       0x14 build/sky/contiki-ng-sky.a(rpl-mrhof.o)
 .text.nbr_path_cost
                0x000000000000d83e       0x38 build/sky/contiki-ng-sky.a(rpl-mrhof.o)
 .text.within_hysteresis
                0x000000000000d876       0x54 build/sky/contiki-ng-sky.a(rpl-mrhof.o)
 .text.nbr_is_acceptable_parent
                0x000000000000d8ca       0x2c build/sky/contiki-ng-sky.a(rpl-mrhof.o)
 .text.rank_via_nbr
                0x000000000000d8f6       0x48 build/sky/contiki-ng-sky.a(rpl-mrhof.o)
 .text.best_parent
                0x000000000000d93e       0x7c build/sky/contiki-ng-sky.a(rpl-mrhof.o)
 .text.spi_init
                0x000000000000d9ba       0x30 build/sky/contiki-ng-sky.a(spi-legacy.o)
                0x000000000000d9ba                spi_init
 .text.libgcc   0x000000000000d9ea       0x2c /opt/mspgcc/bin/../lib/gcc/msp430/4.7.3/mmpy-16/libgcc.a(_mulsi3.o)
                0x000000000000d9ea                __mulsi3
 .text.libgcc   0x000000000000da16       0x22 /opt/mspgcc/bin/../lib/gcc/msp430/4.7.3/mmpy-16/libgcc.a(_udivmod16.o)
                0x000000000000da16                __udivhi3
                0x000000000000da16                __ext_udivmod16
                0x000000000000da30                __umodhi3
 .text.libgcc   0x000000000000da38       0x3a /opt/mspgcc/bin/../lib/gcc/msp430/4.7.3/mmpy-16/libgcc.a(_divmod16.o)
                0x000000000000da38                __ext_divmod16
                0x000000000000da38                __divhi3
                0x000000000000da6a                __modhi3
 .text.libgcc   0x000000000000da72       0x40 /opt/mspgcc/bin/../lib/gcc/msp430/4.7.3/mmpy-16/libgcc.a(_udivmod32.o)
                0x000000000000da72                __udivsi3
                0x000000000000da72                __ext_udivmod32
                0x000000000000daa8                __umodsi3
 .text.libgcc   0x000000000000dab2       0x4c /opt/mspgcc/bin/../lib/gcc/msp430/4.7.3/mmpy-16/libgcc.a(_divmod32.o)
                0x000000000000dab2                __ext_divmod32
                0x000000000000dab2                __divsi3
                0x000000000000daf4                __modsi3
 .text.printf   0x000000000000dafe       0x10 /opt/mspgcc/bin/../lib/gcc/msp430/4.7.3/../../../../msp430/lib/mmpy-16/libc.a(printf.o)
                0x000000000000dafe                printf
 .text.append   0x000000000000db0e       0x22 /opt/mspgcc/bin/../lib/gcc/msp430/4.7.3/../../../../msp430/lib/mmpy-16/libc.a(sprintf.o)
 .text.call_vuprintf
                0x000000000000db30       0x3a /opt/mspgcc/bin/../lib/gcc/msp430/4.7.3/../../../../msp430/lib/mmpy-16/libc.a(sprintf.o)
 .text.snprintf
                0x000000000000db6a       0x1a /opt/mspgcc/bin/../lib/gcc/msp430/4.7.3/../../../../msp430/lib/mmpy-16/libc.a(sprintf.o)
                0x000000000000db6a                snprintf
 .text.print_field
                0x000000000000db84      0x194 /opt/mspgcc/bin/../lib/gcc/msp430/4.7.3/../../../../msp430/lib/mmpy-16/libc.a(vuprintf.o)
 .text.vuprintf
                0x000000000000dd18      0x63e /opt/mspgcc/bin/../lib/gcc/msp430/4.7.3/../../../../msp430/lib/mmpy-16/libc.a(vuprintf.o)
                0x000000000000dd18                vuprintf
 .text.puts     0x000000000000e356       0x2c /opt/mspgcc/bin/../lib/gcc/msp430/4.7.3/../../../../msp430/lib/mmpy-16/libc.a(puts.o)
                0x000000000000e356                puts
 .text.rand     0x000000000000e382       0x26 /opt/mspgcc/bin/../lib/gcc/msp430/4.7.3/../../../../msp430/lib/mmpy-16/libc.a(rand.o)
                0x000000000000e382                rand
 .text.srand    0x000000000000e3a8        0xa /opt/mspgcc/bin/../lib/gcc/msp430/4.7.3/../../../../msp430/lib/mmpy-16/libc.a(rand.o)
                0x000000000000e3a8                srand
 .text.memcmp   0x000000000000e3b2       0x30 /opt/mspgcc/bin/../lib/gcc/msp430/4.7.3/../../../../msp430/lib/mmpy-16/libc.a(memcmp.o)
                0x000000000000e3b2                memcmp
 .text.memcpy   0x000000000000e3e2       0xfa /opt/mspgcc/bin/../lib/gcc/msp430/4.7.3/../../../../msp430/lib/mmpy-16/libc.a(memcpy.o)
                0x000000000000e3e2                memcpy
 .text.memmove  0x000000000000e4dc       0xfa /opt/mspgcc/bin/../lib/gcc/msp430/4.7.3/../../../../msp430/lib/mmpy-16/libc.a(memmove.o)
                0x000000000000e4dc                memmove
 .text.memset   0x000000000000e5d6       0x6a /opt/mspgcc/bin/../lib/gcc/msp430/4.7.3/../../../../msp430/lib/mmpy-16/libc.a(memset.o)
                0x000000000000e5d6                memset
 .text.libgcc   0x000000000000e640       0xf0 /opt/mspgcc/bin/../lib/gcc/msp430/4.7.3/mmpy-16/libgcc.a(_udivmod64.o)
                0x000000000000e640                __xabi_udivmod64
                0x000000000000e69e                __udivdi3
                0x000000000000e6c4                __umoddi3
                0x000000000000e6f2                __udivmoddi4
 .text.crt0     0x000000000000e730        0x2 /opt/mspgcc/bin/../lib/gcc/msp430/4.7.3/mmpy-16/libcrt0.a(_unexpected_.o)
                0x000000000000e730                _unexpected_
 *(.near.text .near.text.*)

.rodata         0x000000000000e734      0x585
                0x000000000000e734                . = ALIGN (0x2)
 *(.rodata .rodata.* .gnu.linkonce.r.*)
 .rodata        0x000000000000e734       0x5a border-router.o
                0x000000000000e770                autostart_processes
 .rodata        0x000000000000e78e       0xf4 build/sky/obj/contiki-main.o
 .rodata        0x000000000000e882       0x31 build/sky/contiki-ng-sky.a(platform.o)
 .rodata        0x000000000000e8b3       0x31 build/sky/contiki-ng-sky.a(rpl-border-rout)
 .rodata        0x000000000000e8e4        0xf build/sky/contiki-ng-sky.a(ctimer.o)
 *fill*         0x000000000000e8f3        0x1 00
 .rodata        0x000000000000e8f4       0xb6 build/sky/contiki-ng-sky.a(log.o)
 .rodata        0x000000000000e9aa        0xc build/sky/contiki-ng-sky.a(etimer.o)
 .rodata        0x000000000000e9b6        0x8 build/sky/contiki-ng-sky.a(linkaddr.o)
                0x000000000000e9b6                linkaddr_null
 .rodata        0x000000000000e9be       0x14 build/sky/contiki-ng-sky.a(csma.o)
                0x000000000000e9c4                csma_driver
 .rodata        0x000000000000e9d2       0x27 build/sky/contiki-ng-sky.a(tcpip.o)
 *fill*         0x000000000000e9f9        0x1 00
 .rodata        0x000000000000e9fa       0x26 build/sky/contiki-ng-sky.a(sicslowpan.o)
                0x000000000000ea06                sicslowpan_driver
                0x000000000000ea0e                llprefix
                0x000000000000ea10                unc_mxconf
                0x000000000000ea14                unc_ctxconf
                0x000000000000ea18                unc_llconf
 .rodata        0x000000000000ea20       0x2d build/sky/contiki-ng-sky.a(uiplib.o)
 *fill*         0x000000000000ea4d        0x1 00
 .rodata        0x000000000000ea4e       0x34 build/sky/contiki-ng-sky.a(rpl.o)
                0x000000000000ea58                rpl_lite_driver
 .rodata        0x000000000000ea82       0x16 build/sky/contiki-ng-sky.a(slip-bridge.o)
                0x000000000000ea94                rpl_interface
 .rodata        0x000000000000ea98       0x80 build/sky/contiki-ng-sky.a(border-router-e)
 .rodata        0x000000000000eb18       0x10 build/sky/contiki-ng-sky.a(button-sensor.o)
                0x000000000000eb20                button_sensor
 .rodata        0x000000000000eb28        0x8 build/sky/contiki-ng-sky.a(sensors.o)
 .rodata.get_value
                0x000000000000eb30       0x34 build/sky/contiki-ng-sky.a(cc2420.o)
 .rodata.set_value
                0x000000000000eb64       0x10 build/sky/contiki-ng-sky.a(cc2420.o)
 .rodata        0x000000000000eb74       0x3e build/sky/contiki-ng-sky.a(cc2420.o)
                0x000000000000eb74                cc2420_aes_128_driver
                0x000000000000eb78                cc2420_driver
 .rodata        0x000000000000ebb2        0xc build/sky/contiki-ng-sky.a(slip.o)
 .rodata        0x000000000000ebbe        0x6 build/sky/contiki-ng-sky.a(framer-802154.o)
                0x000000000000ebbe                framer_802154
 .rodata        0x000000000000ebc4        0x2 build/sky/contiki-ng-sky.a(frame802154.o)
 .rodata        0x000000000000ebc6       0xe0 build/sky/contiki-ng-sky.a(rpl-dag.o)
 .rodata        0x000000000000eca6        0xc build/sky/contiki-ng-sky.a(rpl-timers.o)
 .rodata.vuprintf
                0x000000000000ecb2        0x7 /opt/mspgcc/bin/../lib/gcc/msp430/4.7.3/../../../../msp430/lib/mmpy-16/libc.a(vuprintf.o)
 *(.near.rodata .near.rodata.*)
                0x000000000000ecba                . = ALIGN (0x2)
                0x000000000000ecba                _etext = .

.data           0x0000000000001100      0x144 load address 0x000000000000ecba
                0x0000000000001100                . = ALIGN (0x2)
                0x0000000000001100                __data_start = .
 *(.data .data.* .gnu.linkonce.d.*)
 .data          0x0000000000001100        0xa border-router.o
                0x0000000000001100                contiki_ng_br
 .data          0x000000000000110a        0x2 build/sky/contiki-ng-sky.a(msp430.o)
 .data          0x000000000000110c        0xa build/sky/contiki-ng-sky.a(ctimer.o)
                0x000000000000110c                ctimer_process
 .data          0x0000000000001116       0x50 build/sky/contiki-ng-sky.a(log.o)
                0x0000000000001116                all_modules
                0x0000000000001164                curr_log_level_main
 .data          0x0000000000001166        0xa build/sky/contiki-ng-sky.a(etimer.o)
                0x0000000000001166                etimer_process
 .data          0x0000000000001170       0x10 build/sky/contiki-ng-sky.a(queuebuf.o)
 .data          0x0000000000001180       0x18 build/sky/contiki-ng-sky.a(csma-output.o)
 .data          0x0000000000001198        0x8 build/sky/contiki-ng-sky.a(uip-ds6-route.o)
 .data          0x00000000000011a0        0xa build/sky/contiki-ng-sky.a(tcpip.o)
                0x00000000000011a0                tcpip_process
 .data          0x00000000000011aa        0x8 build/sky/contiki-ng-sky.a(uip-ds6-nbr.o)
 .data          0x00000000000011b2        0x6 build/sky/contiki-ng-sky.a(uip-nd6.o)
 .data          0x00000000000011b8       0x18 build/sky/contiki-ng-sky.a(rpl-icmp6.o)
 .data          0x00000000000011d0        0xa build/sky/contiki-ng-sky.a(border-router-e)
                0x00000000000011d0                border_router_process
 .data          0x00000000000011da        0x4 build/sky/contiki-ng-sky.a(contiki-sky-pla)
                0x00000000000011da                sensors
 .data          0x00000000000011de        0xa build/sky/contiki-ng-sky.a(sensors.o)
                0x00000000000011de                sensors_process
 .data          0x00000000000011e8        0xc build/sky/contiki-ng-sky.a(cc2420.o)
                0x00000000000011e8                cc2420_process
 .data          0x00000000000011f4        0xa build/sky/contiki-ng-sky.a(slip.o)
                0x00000000000011f4                slip_process
 .data          0x00000000000011fe        0x8 build/sky/contiki-ng-sky.a(nbr-table.o)
 .data          0x0000000000001206        0x8 build/sky/contiki-ng-sky.a(link-stats.o)
 .data          0x000000000000120e        0x2 build/sky/contiki-ng-sky.a(frame802154.o)
 .data          0x0000000000001210        0xc build/sky/contiki-ng-sky.a(uip-icmp6.o)
 .data          0x000000000000121c        0x8 build/sky/contiki-ng-sky.a(uip-sr.o)
 .data          0x0000000000001224        0xa build/sky/contiki-ng-sky.a(rpl-neighbor.o)
                0x0000000000001224                rpl_neighbors
 .data          0x000000000000122e       0x12 build/sky/contiki-ng-sky.a(rpl-mrhof.o)
                0x000000000000122e                rpl_mrhof
 .data.next     0x0000000000001240        0x4 /opt/mspgcc/bin/../lib/gcc/msp430/4.7.3/../../../../msp430/lib/mmpy-16/libc.a(rand.o)
 *(.near.data .near.data.*)
                0x0000000000001244                . = ALIGN (0x2)
                0x0000000000001244                _edata = .
                0x000000000000ecba                __data_load_start = LOADADDR (.data)
                0x0000000000000144                __data_size = SIZEOF (.data)

.bss            0x0000000000001244     0x17ce load address 0x000000000000edfe
                0x0000000000001244                __bss_start = .
 *(.bss .bss.*)
 .bss           0x0000000000001244        0x1 build/sky/contiki-ng-sky.a(uart1-putchar.o)
 *fill*         0x0000000000001245        0x1 00
 .bss           0x0000000000001246        0x8 build/sky/contiki-ng-sky.a(platform.o)
 .bss           0x000000000000124e        0xa build/sky/contiki-ng-sky.a(clock.o)
 .bss           0x0000000000001258        0x2 build/sky/contiki-ng-sky.a(watchdog.o)
 .bss           0x000000000000125a        0x4 build/sky/contiki-ng-sky.a(ctimer.o)
 .bss           0x000000000000125e       0x16 build/sky/contiki-ng-sky.a(log.o)
                0x000000000000125e                curr_log_level_lwm2m
                0x0000000000001260                curr_log_level_snmp
                0x0000000000001262                curr_log_level_coap
                0x0000000000001264                curr_log_level_6top
                0x0000000000001266                curr_log_level_framer
                0x0000000000001268                curr_log_level_mac
                0x000000000000126a                curr_log_level_nullnet
                0x000000000000126c                curr_log_level_6lowpan
                0x000000000000126e                curr_log_level_ipv6
                0x0000000000001270                curr_log_level_tcpip
                0x0000000000001272                curr_log_level_rpl
 .bss           0x0000000000001274        0x6 build/sky/contiki-ng-sky.a(etimer.o)
 .bss           0x000000000000127a        0x2 build/sky/contiki-ng-sky.a(node-id.o)
                0x000000000000127a                node_id
 .bss           0x000000000000127c        0x2 build/sky/contiki-ng-sky.a(rtimer.o)
 .bss           0x000000000000127e       0xc8 build/sky/contiki-ng-sky.a(process.o)
                0x000000000000127e                process_current
                0x0000000000001280                process_list
 .bss           0x0000000000001346      0x2c0 build/sky/contiki-ng-sky.a(queuebuf.o)
 .bss           0x0000000000001606       0x86 build/sky/contiki-ng-sky.a(packetbuf.o)
 .bss           0x000000000000168c        0x2 build/sky/contiki-ng-sky.a(netstack.o)
 .bss           0x000000000000168e       0x86 build/sky/contiki-ng-sky.a(csma-output.o)
 .bss           0x0000000000001714       0x28 build/sky/contiki-ng-sky.a(uip-ds6.o)
 .bss           0x000000000000173c       0x3c build/sky/contiki-ng-sky.a(uip-ds6-route.o)
 .bss           0x0000000000001778       0x1c build/sky/contiki-ng-sky.a(tcpip.o)
 .bss           0x0000000000001794        0x8 build/sky/contiki-ng-sky.a(uip6.o)
                0x0000000000001794                uip_last_proto
                0x0000000000001796                uip_ext_len
                0x0000000000001798                uip_ext_bitmap
 .bss           0x000000000000179c      0x120 build/sky/contiki-ng-sky.a(uip-ds6-nbr.o)
 .bss           0x00000000000018bc        0x8 build/sky/contiki-ng-sky.a(uip-nd6.o)
 .bss           0x00000000000018c4      0x6e0 build/sky/contiki-ng-sky.a(sicslowpan.o)
 .bss           0x0000000000001fa4        0x1 build/sky/contiki-ng-sky.a(rpl.o)
 *fill*         0x0000000000001fa5        0x1 00
 .bss           0x0000000000001fa6       0x12 build/sky/contiki-ng-sky.a(rpl-dag-root.o)
 .bss           0x0000000000001fb8       0x10 build/sky/contiki-ng-sky.a(slip-bridge.o)
 .bss           0x0000000000001fc8        0xc build/sky/contiki-ng-sky.a(border-router-e)
 .bss           0x0000000000001fd4        0x8 build/sky/contiki-ng-sky.a(button-sensor.o)
 .bss           0x0000000000001fdc        0x6 build/sky/contiki-ng-sky.a(sensors.o)
 .bss           0x0000000000001fe2       0x10 build/sky/contiki-ng-sky.a(cc2420.o)
 .bss           0x0000000000001ff2       0x9a build/sky/contiki-ng-sky.a(uart1.o)
 .bss           0x000000000000208c       0xa8 build/sky/contiki-ng-sky.a(slip.o)
 .bss           0x0000000000002134       0xe4 build/sky/contiki-ng-sky.a(nbr-table.o)
 .bss           0x0000000000002218       0xa0 build/sky/contiki-ng-sky.a(link-stats.o)
 .bss           0x00000000000022b8       0xe0 build/sky/contiki-ng-sky.a(mac-sequence.o)
 .bss           0x0000000000002398        0x2 build/sky/contiki-ng-sky.a(framer-802154.o)
 .bss           0x000000000000239a       0x18 build/sky/contiki-ng-sky.a(uipbuf.o)
 .bss           0x00000000000023b2       0x14 build/sky/contiki-ng-sky.a(uip-icmp6.o)
 .bss           0x00000000000023c6      0x134 build/sky/contiki-ng-sky.a(uip-sr.o)
 .bss           0x00000000000024fa        0x8 build/sky/contiki-ng-sky.a(rpl-nbr-policy.)
 .bss           0x0000000000002502       0x80 build/sky/contiki-ng-sky.a(rpl-neighbor.o)
 .bss           0x0000000000002582       0x28 build/sky/contiki-ng-sky.a(rpl-timers.o)
 .bss.destination_
                0x00000000000025aa        0x2 /opt/mspgcc/bin/../lib/gcc/msp430/4.7.3/../../../../msp430/lib/mmpy-16/libc.a(sprintf.o)
 .bss.available_
                0x00000000000025ac        0x2 /opt/mspgcc/bin/../lib/gcc/msp430/4.7.3/../../../../msp430/lib/mmpy-16/libc.a(sprintf.o)
 *(.near.bss .near.bss.*)
 *(COMMON)
 COMMON         0x00000000000025ae        0x2 build/sky/contiki-ng-sky.a(msp430.o)
                0x00000000000025ae                msp430_dco_required
 COMMON         0x00000000000025b0        0x1 build/sky/contiki-ng-sky.a(rpl-border-rout)
                0x00000000000025b0                prefix_set
 *fill*         0x00000000000025b1        0x1 00
 COMMON         0x00000000000025b2       0x2a build/sky/contiki-ng-sky.a(packetbuf.o)
                0x00000000000025b2                packetbuf_addrs
                0x00000000000025c2                packetbuf_attrs
 COMMON         0x00000000000025dc        0x8 build/sky/contiki-ng-sky.a(linkaddr.o)
                0x00000000000025dc                linkaddr_node_addr
 COMMON         0x00000000000025e4      0x180 build/sky/contiki-ng-sky.a(uip-ds6.o)
                0x00000000000025e4                uip_ds6_timer_ra
                0x00000000000025ec                uip_ds6_if
                0x00000000000026fc                uip_ds6_netif_addr_list_offset
                0x00000000000026fd                uip_ds6_addr_size
                0x00000000000026fe                uip_ds6_prefix_list
                0x0000000000002758                uip_ds6_timer_periodic
 COMMON         0x0000000000002764        0x1 build/sky/contiki-ng-sky.a(tcpip.o)
                0x0000000000002764                tcpip_event
 *fill*         0x0000000000002765        0x1 00
 COMMON         0x0000000000002766      0x172 build/sky/contiki-ng-sky.a(uip6.o)
                0x0000000000002766                uip_len
                0x0000000000002768                uip_sappdata
                0x000000000000276a                uip_lladdr
                0x0000000000002772                uip_aligned_buf
                0x00000000000027fe                uip_flags
                0x0000000000002800                uip_udp_conn
                0x0000000000002802                uip_appdata
                0x0000000000002804                uip_conn
                0x0000000000002806                uip_slen
                0x0000000000002808                uip_udp_conns
 COMMON         0x00000000000028d8       0x10 build/sky/contiki-ng-sky.a(rpl.o)
                0x00000000000028d8                rpl_multicast_addr
 COMMON         0x00000000000028e8        0x2 build/sky/contiki-ng-sky.a(contiki-sky-pla)
                0x00000000000028e8                sensors_flags
 COMMON         0x00000000000028ea        0x8 build/sky/contiki-ng-sky.a(ds2411.o)
                0x00000000000028ea                ds2411_id
 COMMON         0x00000000000028f2        0x1 build/sky/contiki-ng-sky.a(sensors.o)
                0x00000000000028f2                sensors_event
 *fill*         0x00000000000028f3        0x1 00
 COMMON         0x00000000000028f4        0xc build/sky/contiki-ng-sky.a(cc2420.o)
                0x00000000000028f4                cc2420_last_rssi
                0x00000000000028f6                cc2420_sfd_start_time
                0x00000000000028f8                cc2420_last_correlation
                0x00000000000028fa                cc2420_authority_level_of_sender
                0x00000000000028fc                cc2420_sfd_counter
                0x00000000000028fe                cc2420_sfd_end_time
 COMMON         0x0000000000002900       0x14 build/sky/contiki-ng-sky.a(link-stats.o)
                0x0000000000002900                periodic_timer
 COMMON         0x0000000000002914       0xfe build/sky/contiki-ng-sky.a(rpl-dag.o)
                0x0000000000002914                curr_instance
                0x0000000000002a12                . = ALIGN (0x2)
                0x0000000000002a12                __bss_end = .
                0x00000000000017ce                __bss_size = SIZEOF (.bss)

.noinit         0x0000000000002a12        0x2 load address 0x000000000000edfe
                0x0000000000002a12                . = ALIGN (0x2)
                0x0000000000002a12                __noinit_start = .
 *(.noinit .noinit.*)
 .noinit.crt0   0x0000000000002a12        0x2 /opt/mspgcc/bin/../lib/gcc/msp430/4.7.3/mmpy-16/libcrt0.a(__watchdog_support.o)
                0x0000000000002a12                __wdt_clear_value
                0x0000000000002a14                . = ALIGN (0x2)
                0x0000000000002a14                __noinit_end = .
                0x0000000000002a14                . = ALIGN (0x2)
                0x0000000000002a14                _end = .

.infomem        0x0000000000001000        0x0
                0x0000000000001000                . = ALIGN (0x2)
 *(.infomem .infomem.*)

.infomemnobits  0x0000000000001000        0x0
                0x0000000000001000                . = ALIGN (0x2)
 *(.infomemnobits .infomemnobits.*)

.infoa          0x0000000000001080        0x0
                0x0000000000001080                . = ALIGN (0x2)
 *(.infoa .infoa.*)

.infob          0x0000000000001000        0x0
                0x0000000000001000                . = ALIGN (0x2)
 *(.infob .infob.*)

.infoc          0x0000000000000000        0x0
                0x0000000000000000                . = ALIGN (0x2)
 *(.infoc .infoc.*)

.infod          0x0000000000000000        0x0
                0x0000000000000000                . = ALIGN (0x2)
 *(.infod .infod.*)
                0x000000000000ffff                PROVIDE (__vte_0, 0xffff)
                0x000000000000ffff                PROVIDE (__vte_1, 0xffff)
                0x000000000000ffff                PROVIDE (__vte_2, 0xffff)
                0x000000000000ffff                PROVIDE (__vte_3, 0xffff)
                0x000000000000ffff                PROVIDE (__vte_4, 0xffff)
                0x000000000000ffff                PROVIDE (__vte_5, 0xffff)
                0x000000000000ffff                PROVIDE (__vte_6, 0xffff)
                0x000000000000ffff                PROVIDE (__vte_7, 0xffff)
                0x000000000000ffff                PROVIDE (__vte_8, 0xffff)
                0x000000000000ffff                PROVIDE (__vte_9, 0xffff)
                0x000000000000ffff                PROVIDE (__vte_10, 0xffff)
                0x000000000000ffff                PROVIDE (__vte_11, 0xffff)
                0x000000000000ffff                PROVIDE (__vte_12, 0xffff)
                0x000000000000ffff                PROVIDE (__vte_13, 0xffff)
                0x000000000000ffff                PROVIDE (__vte_14, 0xffff)
                0x000000000000ffff                PROVIDE (__vte_15, 0xffff)
                0x000000000000ffff                PROVIDE (__vte_16, 0xffff)
                0x000000000000ffff                PROVIDE (__vte_17, 0xffff)
                0x000000000000ffff                PROVIDE (__vte_18, 0xffff)
                0x000000000000ffff                PROVIDE (__vte_19, 0xffff)
                0x000000000000ffff                PROVIDE (__vte_20, 0xffff)
                0x000000000000ffff                PROVIDE (__vte_21, 0xffff)
                0x000000000000ffff                PROVIDE (__vte_22, 0xffff)
                0x000000000000ffff                PROVIDE (__vte_23, 0xffff)
                0x000000000000ffff                PROVIDE (__vte_24, 0xffff)
                0x000000000000ffff                PROVIDE (__vte_25, 0xffff)
                0x000000000000ffff                PROVIDE (__vte_26, 0xffff)
                0x000000000000ffff                PROVIDE (__vte_27, 0xffff)
                0x000000000000ffff                PROVIDE (__vte_28, 0xffff)
                0x000000000000ffff                PROVIDE (__vte_29, 0xffff)
                0x000000000000ffff                PROVIDE (__vte_30, 0xffff)
                0x000000000000ffff                PROVIDE (__vte_31, 0xffff)

.vectors        0x000000000000ffe0       0x20
                0x000000000000ffe0                __vectors_start = .
 *(.vectors*)
 .vectors       0x000000000000ffe0       0x20 /opt/mspgcc/bin/../lib/gcc/msp430/4.7.3/mmpy-16/crt0ivtbl16.o
                0x000000000000ffe0                __ivtbl_16
                0x0000000000010000                _vectors_end = .

.fartext        0x0000000000000000        0x0
                0x0000000000000000                . = ALIGN (0x2)
 *(.fartext .fartext.*)

.far.text       0x0000000000000000        0x0
                0x0000000000000000                . = ALIGN (0x2)
 *(.far.text .far.text.*)

.far.rodata     0x0000000000000000        0x0
                0x0000000000000000                . = ALIGN (0x2)
 *(.far.rodata .far.rodata.*)
                0x0000000000000000                . = ALIGN (0x2)
                0x0000000000000000                _efartext = .

.far.data       0x0000000000000000        0x0
                0x0000000000000000                . = ALIGN (0x2)
                0x0000000000000000                __far_data_start = .
 *(.far.data .far.data.*)
                0x0000000000000000                . = ALIGN (0x2)
                0x0000000000000000                _efardata = .
                0x0000000000000000                __far_data_load_start = LOADADDR (.far.data)
                0x0000000000000000                __far_data_size = SIZEOF (.far.data)

.far.bss        0x0000000000000000        0x0
                0x0000000000000000                . = ALIGN (0x2)
                0x0000000000000000                __far_bss_start = .
 *(.far.bss .far.bss.*)
                0x0000000000000000                . = ALIGN (0x2)
                0x0000000000000000                __far_bss_end = .
                0x0000000000000000                __far_bss_size = SIZEOF (.far.bss)
                0x0000000000000000                . = ALIGN (0x2)
                0x0000000000000000                _far_end = .

.profiler
 *(.profiler)

.stab           0x0000000000000000    0x2aeac
 *(.stab)
 .stab          0x0000000000000000      0xa38 border-router.o
 .stab          0x0000000000000a38     0x1464 build/sky/obj/contiki-main.o
                                       0x1be4 (size before relaxing)
 .stab          0x0000000000001e9c      0x2a0 build/sky/contiki-ng-sky.a(uart1-putchar.o)
                                        0x774 (size before relaxing)
 .stab          0x000000000000213c     0x1284 build/sky/contiki-ng-sky.a(platform.o)
                                       0x18fc (size before relaxing)
 .stab          0x00000000000033c0      0x714 build/sky/contiki-ng-sky.a(msp430.o)
                                        0xa38 (size before relaxing)
 .stab          0x0000000000003ad4      0x900 build/sky/contiki-ng-sky.a(clock.o)
                                        0xc48 (size before relaxing)
 .stab          0x00000000000043d4      0x468 build/sky/contiki-ng-sky.a(leds.o)
                                        0x828 (size before relaxing)
 .stab          0x000000000000483c      0x384 build/sky/contiki-ng-sky.a(leds-arch.o)
                                        0x744 (size before relaxing)
 .stab          0x0000000000004bc0      0x3b4 build/sky/contiki-ng-sky.a(watchdog.o)
                                        0x6d8 (size before relaxing)
 .stab          0x0000000000004f74      0x4c8 build/sky/contiki-ng-sky.a(rpl-border-rout)
                                       0x10e0 (size before relaxing)
 .stab          0x000000000000543c      0x2ac build/sky/contiki-ng-sky.a(autostart.o)
                                        0x5d0 (size before relaxing)
 .stab          0x00000000000056e8      0x804 build/sky/contiki-ng-sky.a(ctimer.o)
                                        0xb40 (size before relaxing)
 .stab          0x0000000000005eec      0x858 build/sky/contiki-ng-sky.a(log.o)
                                        0xff0 (size before relaxing)
 .stab          0x0000000000006744      0x270 build/sky/contiki-ng-sky.a(energest.o)
                                        0x5b8 (size before relaxing)
 .stab          0x00000000000069b4      0xa98 build/sky/contiki-ng-sky.a(etimer.o)
                                        0xdbc (size before relaxing)
 .stab          0x000000000000744c      0x264 build/sky/contiki-ng-sky.a(node-id.o)
                                        0x9c0 (size before relaxing)
 .stab          0x00000000000076b0      0x348 build/sky/contiki-ng-sky.a(rtimer.o)
                                        0x66c (size before relaxing)
 .stab          0x00000000000079f8      0xb88 build/sky/contiki-ng-sky.a(process.o)
                                       0x1098 (size before relaxing)
 .stab          0x0000000000008580      0x3b4 build/sky/contiki-ng-sky.a(timer.o)
                                        0x6d8 (size before relaxing)
 .stab          0x0000000000008934      0x954 build/sky/contiki-ng-sky.a(list.o)
                                        0xe40 (size before relaxing)
 .stab          0x0000000000009288      0x288 build/sky/contiki-ng-sky.a(random.o)
                                        0x774 (size before relaxing)
 .stab          0x0000000000009510      0x96c build/sky/contiki-ng-sky.a(queuebuf.o)
                                       0x1734 (size before relaxing)
 .stab          0x0000000000009e7c      0xc48 build/sky/contiki-ng-sky.a(packetbuf.o)
                                       0x1a1c (size before relaxing)
 .stab          0x000000000000aac4      0x4a4 build/sky/contiki-ng-sky.a(netstack.o)
                                        0x8ac (size before relaxing)
 .stab          0x000000000000af68      0x30c build/sky/contiki-ng-sky.a(linkaddr.o)
                                        0x7f8 (size before relaxing)
 .stab          0x000000000000b274      0x924 build/sky/contiki-ng-sky.a(csma.o)
                                        0xedc (size before relaxing)
 .stab          0x000000000000bb98      0xc30 build/sky/contiki-ng-sky.a(csma-output.o)
                                       0x1584 (size before relaxing)
 .stab          0x000000000000c7c8     0x1548 build/sky/contiki-ng-sky.a(uip-ds6.o)
                                       0x2148 (size before relaxing)
 .stab          0x000000000000dd10      0xaec build/sky/contiki-ng-sky.a(uip-ds6-route.o)
                                       0x16ec (size before relaxing)
 .stab          0x000000000000e7fc      0xc3c build/sky/contiki-ng-sky.a(tcpip.o)
                                       0x19bc (size before relaxing)
 .stab          0x000000000000f438     0x150c build/sky/contiki-ng-sky.a(uip6.o)
                                       0x2160 (size before relaxing)
 .stab          0x0000000000010944      0xeb8 build/sky/contiki-ng-sky.a(uip-ds6-nbr.o)
                                       0x17c4 (size before relaxing)
 .stab          0x00000000000117fc      0x768 build/sky/contiki-ng-sky.a(uip-nd6.o)
                                       0x13bc (size before relaxing)
 .stab          0x0000000000011f64     0x2d90 build/sky/contiki-ng-sky.a(sicslowpan.o)
                                       0x3a44 (size before relaxing)
 .stab          0x0000000000014cf4      0x858 build/sky/contiki-ng-sky.a(uiplib.o)
                                        0xff0 (size before relaxing)
 .stab          0x000000000001554c      0xde0 build/sky/contiki-ng-sky.a(rpl.o)
                                       0x19e0 (size before relaxing)
 .stab          0x000000000001632c     0x15fc build/sky/contiki-ng-sky.a(rpl-icmp6.o)
                                       0x2418 (size before relaxing)
 .stab          0x0000000000017928      0x768 build/sky/contiki-ng-sky.a(rpl-dag-root.o)
                                       0x15fc (size before relaxing)
 .stab          0x0000000000018090      0x570 build/sky/contiki-ng-sky.a(slip-bridge.o)
                                       0x1158 (size before relaxing)
 .stab          0x0000000000018600      0x4e0 build/sky/contiki-ng-sky.a(border-router-e)
                                       0x1104 (size before relaxing)
 .stab          0x0000000000018ae0      0x234 build/sky/contiki-ng-sky.a(contiki-sky-pla)
                                        0x564 (size before relaxing)
 .stab          0x0000000000018d14      0x42c build/sky/contiki-ng-sky.a(button-sensor.o)
                                        0x768 (size before relaxing)
 .stab          0x0000000000019140      0x600 build/sky/contiki-ng-sky.a(ds2411.o)
                                        0xaec (size before relaxing)
 .stab          0x0000000000019740      0x990 build/sky/contiki-ng-sky.a(xmem.o)
                                        0xe88 (size before relaxing)
 .stab          0x000000000001a0d0      0x66c build/sky/contiki-ng-sky.a(sensors.o)
                                        0xb70 (size before relaxing)
 .stab          0x000000000001a73c     0x279c build/sky/contiki-ng-sky.a(cc2420.o)
                                       0x2f94 (size before relaxing)
 .stab          0x000000000001ced8      0x438 build/sky/contiki-ng-sky.a(cc2420-arch.o)
                                       0x11b8 (size before relaxing)
 .stab          0x000000000001d310      0x5e8 build/sky/contiki-ng-sky.a(uart1.o)
                                        0x90c (size before relaxing)
 .stab          0x000000000001d8f8      0x240 build/sky/contiki-ng-sky.a(slip_uart1.o)
                                        0x564 (size before relaxing)
 .stab          0x000000000001db38      0xa98 build/sky/contiki-ng-sky.a(slip.o)
                                       0x120c (size before relaxing)
 .stab          0x000000000001e5d0      0x378 build/sky/contiki-ng-sky.a(rtimer-arch.o)
                                        0x69c (size before relaxing)
 .stab          0x000000000001e948      0x42c build/sky/contiki-ng-sky.a(stimer.o)
                                        0x768 (size before relaxing)
 .stab          0x000000000001ed74      0x5ac build/sky/contiki-ng-sky.a(memb.o)
                                        0xab0 (size before relaxing)
 .stab          0x000000000001f320      0xf84 build/sky/contiki-ng-sky.a(nbr-table.o)
                                       0x15f0 (size before relaxing)
 .stab          0x00000000000202a4      0x8a0 build/sky/contiki-ng-sky.a(link-stats.o)
                                       0x1254 (size before relaxing)
 .stab          0x0000000000020b44      0x57c build/sky/contiki-ng-sky.a(mac-sequence.o)
                                       0x1350 (size before relaxing)
 .stab          0x00000000000210c0      0x4bc build/sky/contiki-ng-sky.a(mac.o)
                                        0xad4 (size before relaxing)
 .stab          0x000000000002157c      0x7a4 build/sky/contiki-ng-sky.a(framer-802154.o)
                                        0xff0 (size before relaxing)
 .stab          0x0000000000021d20     0x1188 build/sky/contiki-ng-sky.a(frame802154.o)
                                       0x1938 (size before relaxing)
 .stab          0x0000000000022ea8      0x39c build/sky/contiki-ng-sky.a(csma-security.o)
                                        0xcd8 (size before relaxing)
 .stab          0x0000000000023244      0xad4 build/sky/contiki-ng-sky.a(uipbuf.o)
                                       0x1218 (size before relaxing)
 .stab          0x0000000000023d18      0xb10 build/sky/contiki-ng-sky.a(uip-icmp6.o)
                                       0x17a0 (size before relaxing)
 .stab          0x0000000000024828      0xcd8 build/sky/contiki-ng-sky.a(uip-sr.o)
                                       0x17c4 (size before relaxing)
 .stab          0x0000000000025500      0x5b8 build/sky/contiki-ng-sky.a(rpl-nbr-policy.)
                                       0x12d8 (size before relaxing)
 .stab          0x0000000000025ab8     0x114c build/sky/contiki-ng-sky.a(rpl-neighbor.o)
                                       0x1e90 (size before relaxing)
 .stab          0x0000000000026c04     0x1638 build/sky/contiki-ng-sky.a(rpl-dag.o)
                                       0x23ac (size before relaxing)
 .stab          0x000000000002823c     0x1290 build/sky/contiki-ng-sky.a(rpl-timers.o)
                                       0x1ff8 (size before relaxing)
 .stab          0x00000000000294cc      0xeb8 build/sky/contiki-ng-sky.a(rpl-ext-header.)
                                       0x1cb0 (size before relaxing)
 .stab          0x000000000002a384      0x8d0 build/sky/contiki-ng-sky.a(rpl-mrhof.o)
                                       0x1620 (size before relaxing)
 .stab          0x000000000002ac54      0x258 build/sky/contiki-ng-sky.a(spi-legacy.o)
                                        0x57c (size before relaxing)

.stabstr        0x0000000000000000    0x1ce39
 *(.stabstr)
 .stabstr       0x0000000000000000    0x1ce39 border-router.o

.stab.excl
 *(.stab.excl)

.stab.exclstr
 *(.stab.exclstr)

.stab.index
 *(.stab.index)

.stab.indexstr
 *(.stab.indexstr)

.comment        0x0000000000000000       0x30
 *(.comment)
 .comment       0x0000000000000000       0x30 border-router.o
                                         0x31 (size before relaxing)
 .comment       0x0000000000000000       0x31 build/sky/obj/contiki-main.o
 .comment       0x0000000000000000       0x31 build/sky/contiki-ng-sky.a(uart1-putchar.o)
 .comment       0x0000000000000000       0x31 build/sky/contiki-ng-sky.a(platform.o)
 .comment       0x0000000000000000       0x31 build/sky/contiki-ng-sky.a(msp430.o)
 .comment       0x0000000000000000       0x31 build/sky/contiki-ng-sky.a(clock.o)
 .comment       0x0000000000000000       0x31 build/sky/contiki-ng-sky.a(leds.o)
 .comment       0x0000000000000000       0x31 build/sky/contiki-ng-sky.a(leds-arch.o)
 .comment       0x0000000000000000       0x31 build/sky/contiki-ng-sky.a(watchdog.o)
 .comment       0x0000000000000000       0x31 build/sky/contiki-ng-sky.a(rpl-border-rout)
 .comment       0x0000000000000000       0x31 build/sky/contiki-ng-sky.a(autostart.o)
 .comment       0x0000000000000000       0x31 build/sky/contiki-ng-sky.a(ctimer.o)
 .comment       0x0000000000000000       0x31 build/sky/contiki-ng-sky.a(log.o)
 .comment       0x0000000000000000       0x31 build/sky/contiki-ng-sky.a(energest.o)
 .comment       0x0000000000000000       0x31 build/sky/contiki-ng-sky.a(etimer.o)
 .comment       0x0000000000000000       0x31 build/sky/contiki-ng-sky.a(node-id.o)
 .comment       0x0000000000000000       0x31 build/sky/contiki-ng-sky.a(rtimer.o)
 .comment       0x0000000000000000       0x31 build/sky/contiki-ng-sky.a(process.o)
 .comment       0x0000000000000000       0x31 build/sky/contiki-ng-sky.a(timer.o)
 .comment       0x0000000000000000       0x31 build/sky/contiki-ng-sky.a(list.o)
 .comment       0x0000000000000000       0x31 build/sky/contiki-ng-sky.a(random.o)
 .comment       0x0000000000000000       0x31 build/sky/contiki-ng-sky.a(queuebuf.o)
 .comment       0x0000000000000000       0x31 build/sky/contiki-ng-sky.a(packetbuf.o)
 .comment       0x0000000000000000       0x31 build/sky/contiki-ng-sky.a(netstack.o)
 .comment       0x0000000000000000       0x31 build/sky/contiki-ng-sky.a(linkaddr.o)
 .comment       0x0000000000000000       0x31 build/sky/contiki-ng-sky.a(csma.o)
 .comment       0x0000000000000000       0x31 build/sky/contiki-ng-sky.a(csma-output.o)
 .comment       0x0000000000000000       0x31 build/sky/contiki-ng-sky.a(uip-ds6.o)
 .comment       0x0000000000000000       0x31 build/sky/contiki-ng-sky.a(uip-ds6-route.o)
 .comment       0x0000000000000000       0x31 build/sky/contiki-ng-sky.a(tcpip.o)
 .comment       0x0000000000000000       0x31 build/sky/contiki-ng-sky.a(uip6.o)
 .comment       0x0000000000000000       0x31 build/sky/contiki-ng-sky.a(uip-ds6-nbr.o)
 .comment       0x0000000000000000       0x31 build/sky/contiki-ng-sky.a(uip-nd6.o)
 .comment       0x0000000000000000       0x31 build/sky/contiki-ng-sky.a(sicslowpan.o)
 .comment       0x0000000000000000       0x31 build/sky/contiki-ng-sky.a(uiplib.o)
 .comment       0x0000000000000000       0x31 build/sky/contiki-ng-sky.a(rpl.o)
 .comment       0x0000000000000000       0x31 build/sky/contiki-ng-sky.a(rpl-icmp6.o)
 .comment       0x0000000000000000       0x31 build/sky/contiki-ng-sky.a(rpl-dag-root.o)
 .comment       0x0000000000000000       0x31 build/sky/contiki-ng-sky.a(slip-bridge.o)
 .comment       0x0000000000000000       0x31 build/sky/contiki-ng-sky.a(border-router-e)
 .comment       0x0000000000000000       0x31 build/sky/contiki-ng-sky.a(contiki-sky-pla)
 .comment       0x0000000000000000       0x31 build/sky/contiki-ng-sky.a(button-sensor.o)
 .comment       0x0000000000000000       0x31 build/sky/contiki-ng-sky.a(ds2411.o)
 .comment       0x0000000000000000       0x31 build/sky/contiki-ng-sky.a(xmem.o)
 .comment       0x0000000000000000       0x31 build/sky/contiki-ng-sky.a(sensors.o)
 .comment       0x0000000000000000       0x31 build/sky/contiki-ng-sky.a(cc2420.o)
 .comment       0x0000000000000000       0x31 build/sky/contiki-ng-sky.a(cc2420-arch.o)
 .comment       0x0000000000000000       0x31 build/sky/contiki-ng-sky.a(uart1.o)
 .comment       0x0000000000000000       0x31 build/sky/contiki-ng-sky.a(slip_uart1.o)
 .comment       0x0000000000000000       0x31 build/sky/contiki-ng-sky.a(slip.o)
 .comment       0x0000000000000000       0x31 build/sky/contiki-ng-sky.a(rtimer-arch.o)
 .comment       0x0000000000000000       0x31 build/sky/contiki-ng-sky.a(stimer.o)
 .comment       0x0000000000000000       0x31 build/sky/contiki-ng-sky.a(memb.o)
 .comment       0x0000000000000000       0x31 build/sky/contiki-ng-sky.a(nbr-table.o)
 .comment       0x0000000000000000       0x31 build/sky/contiki-ng-sky.a(link-stats.o)
 .comment       0x0000000000000000       0x31 build/sky/contiki-ng-sky.a(mac-sequence.o)
 .comment       0x0000000000000000       0x31 build/sky/contiki-ng-sky.a(mac.o)
 .comment       0x0000000000000000       0x31 build/sky/contiki-ng-sky.a(framer-802154.o)
 .comment       0x0000000000000000       0x31 build/sky/contiki-ng-sky.a(frame802154.o)
 .comment       0x0000000000000000       0x31 build/sky/contiki-ng-sky.a(csma-security.o)
 .comment       0x0000000000000000       0x31 build/sky/contiki-ng-sky.a(uipbuf.o)
 .comment       0x0000000000000000       0x31 build/sky/contiki-ng-sky.a(uip-icmp6.o)
 .comment       0x0000000000000000       0x31 build/sky/contiki-ng-sky.a(uip-sr.o)
 .comment       0x0000000000000000       0x31 build/sky/contiki-ng-sky.a(rpl-nbr-policy.)
 .comment       0x0000000000000000       0x31 build/sky/contiki-ng-sky.a(rpl-neighbor.o)
 .comment       0x0000000000000000       0x31 build/sky/contiki-ng-sky.a(rpl-dag.o)
 .comment       0x0000000000000000       0x31 build/sky/contiki-ng-sky.a(rpl-timers.o)
 .comment       0x0000000000000000       0x31 build/sky/contiki-ng-sky.a(rpl-ext-header.)
 .comment       0x0000000000000000       0x31 build/sky/contiki-ng-sky.a(rpl-mrhof.o)
 .comment       0x0000000000000000       0x31 build/sky/contiki-ng-sky.a(spi-legacy.o)
 .comment       0x0000000000000000       0x31 /opt/mspgcc/bin/../lib/gcc/msp430/4.7.3/../../../../msp430/lib/mmpy-16/libc.a(printf.o)
 .comment       0x0000000000000000       0x31 /opt/mspgcc/bin/../lib/gcc/msp430/4.7.3/../../../../msp430/lib/mmpy-16/libc.a(sprintf.o)
 .comment       0x0000000000000000       0x31 /opt/mspgcc/bin/../lib/gcc/msp430/4.7.3/../../../../msp430/lib/mmpy-16/libc.a(vuprintf.o)
 .comment       0x0000000000000000       0x31 /opt/mspgcc/bin/../lib/gcc/msp430/4.7.3/../../../../msp430/lib/mmpy-16/libc.a(puts.o)
 .comment       0x0000000000000000       0x31 /opt/mspgcc/bin/../lib/gcc/msp430/4.7.3/../../../../msp430/lib/mmpy-16/libc.a(rand.o)
 .comment       0x0000000000000000       0x31 /opt/mspgcc/bin/../lib/gcc/msp430/4.7.3/../../../../msp430/lib/mmpy-16/libc.a(memcmp.o)
 .comment       0x0000000000000000       0x31 /opt/mspgcc/bin/../lib/gcc/msp430/4.7.3/../../../../msp430/lib/mmpy-16/libc.a(memcpy.o)
 .comment       0x0000000000000000       0x31 /opt/mspgcc/bin/../lib/gcc/msp430/4.7.3/../../../../msp430/lib/mmpy-16/libc.a(memmove.o)
 .comment       0x0000000000000000       0x31 /opt/mspgcc/bin/../lib/gcc/msp430/4.7.3/../../../../msp430/lib/mmpy-16/libc.a(memset.o)

.debug
 *(.debug)

.line
 *(.line)

.debug_srcinfo
 *(.debug_srcinfo)

.debug_sfnames
 *(.debug_sfnames)

.debug_aranges  0x0000000000000000      0x1dc
 *(.debug_aranges)
 .debug_aranges
                0x0000000000000000       0x14 /opt/mspgcc/bin/../lib/gcc/msp430/4.7.3/mmpy-16/crt0ivtbl16.o
 .debug_aranges
                0x0000000000000014       0x14 /opt/mspgcc/bin/../lib/gcc/msp430/4.7.3/mmpy-16/libgcc.a(_mulsi3.o)
 .debug_aranges
                0x0000000000000028       0x14 /opt/mspgcc/bin/../lib/gcc/msp430/4.7.3/mmpy-16/libgcc.a(_udivmod16.o)
 .debug_aranges
                0x000000000000003c       0x14 /opt/mspgcc/bin/../lib/gcc/msp430/4.7.3/mmpy-16/libgcc.a(_divmod16.o)
 .debug_aranges
                0x0000000000000050       0x14 /opt/mspgcc/bin/../lib/gcc/msp430/4.7.3/mmpy-16/libgcc.a(_udivmod32.o)
 .debug_aranges
                0x0000000000000064       0x14 /opt/mspgcc/bin/../lib/gcc/msp430/4.7.3/mmpy-16/libgcc.a(_divmod32.o)
 .debug_aranges
                0x0000000000000078       0x18 /opt/mspgcc/bin/../lib/gcc/msp430/4.7.3/../../../../msp430/lib/mmpy-16/libc.a(printf.o)
 .debug_aranges
                0x0000000000000090       0x28 /opt/mspgcc/bin/../lib/gcc/msp430/4.7.3/../../../../msp430/lib/mmpy-16/libc.a(sprintf.o)
 .debug_aranges
                0x00000000000000b8       0x18 /opt/mspgcc/bin/../lib/gcc/msp430/4.7.3/../../../../msp430/lib/mmpy-16/libc.a(vuprintf.o)
 .debug_aranges
                0x00000000000000d0       0x14 /opt/mspgcc/bin/../lib/gcc/msp430/4.7.3/../../../../msp430/lib/mmpy-16/libc.a(puts.o)
 .debug_aranges
                0x00000000000000e4       0x1c /opt/mspgcc/bin/../lib/gcc/msp430/4.7.3/../../../../msp430/lib/mmpy-16/libc.a(rand.o)
 .debug_aranges
                0x0000000000000100       0x14 /opt/mspgcc/bin/../lib/gcc/msp430/4.7.3/../../../../msp430/lib/mmpy-16/libc.a(memcmp.o)
 .debug_aranges
                0x0000000000000114       0x14 /opt/mspgcc/bin/../lib/gcc/msp430/4.7.3/../../../../msp430/lib/mmpy-16/libc.a(memcpy.o)
 .debug_aranges
                0x0000000000000128       0x14 /opt/mspgcc/bin/../lib/gcc/msp430/4.7.3/../../../../msp430/lib/mmpy-16/libc.a(memmove.o)
 .debug_aranges
                0x000000000000013c       0x14 /opt/mspgcc/bin/../lib/gcc/msp430/4.7.3/../../../../msp430/lib/mmpy-16/libc.a(memset.o)
 .debug_aranges
                0x0000000000000150       0x14 /opt/mspgcc/bin/../lib/gcc/msp430/4.7.3/mmpy-16/libgcc.a(_udivmod64.o)
 .debug_aranges
                0x0000000000000164       0x14 /opt/mspgcc/bin/../lib/gcc/msp430/4.7.3/mmpy-16/libcrt0.a(__watchdog_support.o)
 .debug_aranges
                0x0000000000000178       0x14 /opt/mspgcc/bin/../lib/gcc/msp430/4.7.3/mmpy-16/libcrt0.a(__init_stack.o)
 .debug_aranges
                0x000000000000018c       0x14 /opt/mspgcc/bin/../lib/gcc/msp430/4.7.3/mmpy-16/libcrt0.a(_copy_data.o)
 .debug_aranges
                0x00000000000001a0       0x14 /opt/mspgcc/bin/../lib/gcc/msp430/4.7.3/mmpy-16/libcrt0.a(_clear_bss.o)
 .debug_aranges
                0x00000000000001b4       0x14 /opt/mspgcc/bin/../lib/gcc/msp430/4.7.3/mmpy-16/libcrt0.a(_endless_loop__.o)
 .debug_aranges
                0x00000000000001c8       0x14 /opt/mspgcc/bin/../lib/gcc/msp430/4.7.3/mmpy-16/libcrt0.a(_unexpected_.o)

.debug_pubnames
 *(.debug_pubnames)

.debug_info     0x0000000000000000     0x188d
 *(.debug_info)
 .debug_info    0x0000000000000000       0x9d /opt/mspgcc/bin/../lib/gcc/msp430/4.7.3/mmpy-16/crt0ivtbl16.o
 .debug_info    0x000000000000009d       0x9a /opt/mspgcc/bin/../lib/gcc/msp430/4.7.3/mmpy-16/libgcc.a(_mulsi3.o)
 .debug_info    0x0000000000000137       0x9a /opt/mspgcc/bin/../lib/gcc/msp430/4.7.3/mmpy-16/libgcc.a(_udivmod16.o)
 .debug_info    0x00000000000001d1       0x9a /opt/mspgcc/bin/../lib/gcc/msp430/4.7.3/mmpy-16/libgcc.a(_divmod16.o)
 .debug_info    0x000000000000026b       0x9a /opt/mspgcc/bin/../lib/gcc/msp430/4.7.3/mmpy-16/libgcc.a(_udivmod32.o)
 .debug_info    0x0000000000000305       0x9a /opt/mspgcc/bin/../lib/gcc/msp430/4.7.3/mmpy-16/libgcc.a(_divmod32.o)
 .debug_info    0x000000000000039f      0x16e /opt/mspgcc/bin/../lib/gcc/msp430/4.7.3/../../../../msp430/lib/mmpy-16/libc.a(printf.o)
 .debug_info    0x000000000000050d      0x321 /opt/mspgcc/bin/../lib/gcc/msp430/4.7.3/../../../../msp430/lib/mmpy-16/libc.a(sprintf.o)
 .debug_info    0x000000000000082e      0x5d4 /opt/mspgcc/bin/../lib/gcc/msp430/4.7.3/../../../../msp430/lib/mmpy-16/libc.a(vuprintf.o)
 .debug_info    0x0000000000000e02       0xc7 /opt/mspgcc/bin/../lib/gcc/msp430/4.7.3/../../../../msp430/lib/mmpy-16/libc.a(puts.o)
 .debug_info    0x0000000000000ec9      0x146 /opt/mspgcc/bin/../lib/gcc/msp430/4.7.3/../../../../msp430/lib/mmpy-16/libc.a(rand.o)
 .debug_info    0x000000000000100f       0xe5 /opt/mspgcc/bin/../lib/gcc/msp430/4.7.3/../../../../msp430/lib/mmpy-16/libc.a(memcmp.o)
 .debug_info    0x00000000000010f4      0x12c /opt/mspgcc/bin/../lib/gcc/msp430/4.7.3/../../../../msp430/lib/mmpy-16/libc.a(memcpy.o)
 .debug_info    0x0000000000001220      0x12c /opt/mspgcc/bin/../lib/gcc/msp430/4.7.3/../../../../msp430/lib/mmpy-16/libc.a(memmove.o)
 .debug_info    0x000000000000134c      0x117 /opt/mspgcc/bin/../lib/gcc/msp430/4.7.3/../../../../msp430/lib/mmpy-16/libc.a(memset.o)
 .debug_info    0x0000000000001463       0x9a /opt/mspgcc/bin/../lib/gcc/msp430/4.7.3/mmpy-16/libgcc.a(_udivmod64.o)
 .debug_info    0x00000000000014fd       0x98 /opt/mspgcc/bin/../lib/gcc/msp430/4.7.3/mmpy-16/libcrt0.a(__watchdog_support.o)
 .debug_info    0x0000000000001595       0x98 /opt/mspgcc/bin/../lib/gcc/msp430/4.7.3/mmpy-16/libcrt0.a(__init_stack.o)
 .debug_info    0x000000000000162d       0x98 /opt/mspgcc/bin/../lib/gcc/msp430/4.7.3/mmpy-16/libcrt0.a(_copy_data.o)
 .debug_info    0x00000000000016c5       0x98 /opt/mspgcc/bin/../lib/gcc/msp430/4.7.3/mmpy-16/libcrt0.a(_clear_bss.o)
 .debug_info    0x000000000000175d       0x98 /opt/mspgcc/bin/../lib/gcc/msp430/4.7.3/mmpy-16/libcrt0.a(_endless_loop__.o)
 .debug_info    0x00000000000017f5       0x98 /opt/mspgcc/bin/../lib/gcc/msp430/4.7.3/mmpy-16/libcrt0.a(_unexpected_.o)
 *(.gnu.linkonce.wi.*)

.debug_abbrev   0x0000000000000000      0x9bb
 *(.debug_abbrev)
 .debug_abbrev  0x0000000000000000       0x14 /opt/mspgcc/bin/../lib/gcc/msp430/4.7.3/mmpy-16/crt0ivtbl16.o
 .debug_abbrev  0x0000000000000014       0x14 /opt/mspgcc/bin/../lib/gcc/msp430/4.7.3/mmpy-16/libgcc.a(_mulsi3.o)
 .debug_abbrev  0x0000000000000028       0x14 /opt/mspgcc/bin/../lib/gcc/msp430/4.7.3/mmpy-16/libgcc.a(_udivmod16.o)
 .debug_abbrev  0x000000000000003c       0x14 /opt/mspgcc/bin/../lib/gcc/msp430/4.7.3/mmpy-16/libgcc.a(_divmod16.o)
 .debug_abbrev  0x0000000000000050       0x14 /opt/mspgcc/bin/../lib/gcc/msp430/4.7.3/mmpy-16/libgcc.a(_udivmod32.o)
 .debug_abbrev  0x0000000000000064       0x14 /opt/mspgcc/bin/../lib/gcc/msp430/4.7.3/mmpy-16/libgcc.a(_divmod32.o)
 .debug_abbrev  0x0000000000000078       0xfa /opt/mspgcc/bin/../lib/gcc/msp430/4.7.3/../../../../msp430/lib/mmpy-16/libc.a(printf.o)
 .debug_abbrev  0x0000000000000172      0x14c /opt/mspgcc/bin/../lib/gcc/msp430/4.7.3/../../../../msp430/lib/mmpy-16/libc.a(sprintf.o)
 .debug_abbrev  0x00000000000002be      0x23e /opt/mspgcc/bin/../lib/gcc/msp430/4.7.3/../../../../msp430/lib/mmpy-16/libc.a(vuprintf.o)
 .debug_abbrev  0x00000000000004fc       0xa3 /opt/mspgcc/bin/../lib/gcc/msp430/4.7.3/../../../../msp430/lib/mmpy-16/libc.a(puts.o)
 .debug_abbrev  0x000000000000059f       0xfb /opt/mspgcc/bin/../lib/gcc/msp430/4.7.3/../../../../msp430/lib/mmpy-16/libc.a(rand.o)
 .debug_abbrev  0x000000000000069a       0x9e /opt/mspgcc/bin/../lib/gcc/msp430/4.7.3/../../../../msp430/lib/mmpy-16/libc.a(memcmp.o)
 .debug_abbrev  0x0000000000000738       0xab /opt/mspgcc/bin/../lib/gcc/msp430/4.7.3/../../../../msp430/lib/mmpy-16/libc.a(memcpy.o)
 .debug_abbrev  0x00000000000007e3       0xab /opt/mspgcc/bin/../lib/gcc/msp430/4.7.3/../../../../msp430/lib/mmpy-16/libc.a(memmove.o)
 .debug_abbrev  0x000000000000088e       0xa1 /opt/mspgcc/bin/../lib/gcc/msp430/4.7.3/../../../../msp430/lib/mmpy-16/libc.a(memset.o)
 .debug_abbrev  0x000000000000092f       0x14 /opt/mspgcc/bin/../lib/gcc/msp430/4.7.3/mmpy-16/libgcc.a(_udivmod64.o)
 .debug_abbrev  0x0000000000000943       0x14 /opt/mspgcc/bin/../lib/gcc/msp430/4.7.3/mmpy-16/libcrt0.a(__watchdog_support.o)
 .debug_abbrev  0x0000000000000957       0x14 /opt/mspgcc/bin/../lib/gcc/msp430/4.7.3/mmpy-16/libcrt0.a(__init_stack.o)
 .debug_abbrev  0x000000000000096b       0x14 /opt/mspgcc/bin/../lib/gcc/msp430/4.7.3/mmpy-16/libcrt0.a(_copy_data.o)
 .debug_abbrev  0x000000000000097f       0x14 /opt/mspgcc/bin/../lib/gcc/msp430/4.7.3/mmpy-16/libcrt0.a(_clear_bss.o)
 .debug_abbrev  0x0000000000000993       0x14 /opt/mspgcc/bin/../lib/gcc/msp430/4.7.3/mmpy-16/libcrt0.a(_endless_loop__.o)
 .debug_abbrev  0x00000000000009a7       0x14 /opt/mspgcc/bin/../lib/gcc/msp430/4.7.3/mmpy-16/libcrt0.a(_unexpected_.o)

.debug_line     0x0000000000000000      0xf26
 *(.debug_line)
 .debug_line    0x0000000000000000       0x64 /opt/mspgcc/bin/../lib/gcc/msp430/4.7.3/mmpy-16/crt0ivtbl16.o
 .debug_line    0x0000000000000064       0x77 /opt/mspgcc/bin/../lib/gcc/msp430/4.7.3/mmpy-16/libgcc.a(_mulsi3.o)
 .debug_line    0x00000000000000db       0x70 /opt/mspgcc/bin/../lib/gcc/msp430/4.7.3/mmpy-16/libgcc.a(_udivmod16.o)
 .debug_line    0x000000000000014b       0x7b /opt/mspgcc/bin/../lib/gcc/msp430/4.7.3/mmpy-16/libgcc.a(_divmod16.o)
 .debug_line    0x00000000000001c6       0x7f /opt/mspgcc/bin/../lib/gcc/msp430/4.7.3/mmpy-16/libgcc.a(_udivmod32.o)
 .debug_line    0x0000000000000245       0x84 /opt/mspgcc/bin/../lib/gcc/msp430/4.7.3/mmpy-16/libgcc.a(_divmod32.o)
 .debug_line    0x00000000000002c9       0xab /opt/mspgcc/bin/../lib/gcc/msp430/4.7.3/../../../../msp430/lib/mmpy-16/libc.a(printf.o)
 .debug_line    0x0000000000000374      0x109 /opt/mspgcc/bin/../lib/gcc/msp430/4.7.3/../../../../msp430/lib/mmpy-16/libc.a(sprintf.o)
 .debug_line    0x000000000000047d      0x30c /opt/mspgcc/bin/../lib/gcc/msp430/4.7.3/../../../../msp430/lib/mmpy-16/libc.a(vuprintf.o)
 .debug_line    0x0000000000000789       0x65 /opt/mspgcc/bin/../lib/gcc/msp430/4.7.3/../../../../msp430/lib/mmpy-16/libc.a(puts.o)
 .debug_line    0x00000000000007ee       0x68 /opt/mspgcc/bin/../lib/gcc/msp430/4.7.3/../../../../msp430/lib/mmpy-16/libc.a(rand.o)
 .debug_line    0x0000000000000856       0x91 /opt/mspgcc/bin/../lib/gcc/msp430/4.7.3/../../../../msp430/lib/mmpy-16/libc.a(memcmp.o)
 .debug_line    0x00000000000008e7      0x11a /opt/mspgcc/bin/../lib/gcc/msp430/4.7.3/../../../../msp430/lib/mmpy-16/libc.a(memcpy.o)
 .debug_line    0x0000000000000a01      0x119 /opt/mspgcc/bin/../lib/gcc/msp430/4.7.3/../../../../msp430/lib/mmpy-16/libc.a(memmove.o)
 .debug_line    0x0000000000000b1a       0xf4 /opt/mspgcc/bin/../lib/gcc/msp430/4.7.3/../../../../msp430/lib/mmpy-16/libc.a(memset.o)
 .debug_line    0x0000000000000c0e       0xc9 /opt/mspgcc/bin/../lib/gcc/msp430/4.7.3/mmpy-16/libgcc.a(_udivmod64.o)
 .debug_line    0x0000000000000cd7       0x62 /opt/mspgcc/bin/../lib/gcc/msp430/4.7.3/mmpy-16/libcrt0.a(__watchdog_support.o)
 .debug_line    0x0000000000000d39       0x60 /opt/mspgcc/bin/../lib/gcc/msp430/4.7.3/mmpy-16/libcrt0.a(__init_stack.o)
 .debug_line    0x0000000000000d99       0x66 /opt/mspgcc/bin/../lib/gcc/msp430/4.7.3/mmpy-16/libcrt0.a(_copy_data.o)
 .debug_line    0x0000000000000dff       0x66 /opt/mspgcc/bin/../lib/gcc/msp430/4.7.3/mmpy-16/libcrt0.a(_clear_bss.o)
 .debug_line    0x0000000000000e65       0x61 /opt/mspgcc/bin/../lib/gcc/msp430/4.7.3/mmpy-16/libcrt0.a(_endless_loop__.o)
 .debug_line    0x0000000000000ec6       0x60 /opt/mspgcc/bin/../lib/gcc/msp430/4.7.3/mmpy-16/libcrt0.a(_unexpected_.o)

.debug_frame    0x0000000000000000      0x250
 *(.debug_frame)
 .debug_frame   0x0000000000000000       0x2a /opt/mspgcc/bin/../lib/gcc/msp430/4.7.3/../../../../msp430/lib/mmpy-16/libc.a(printf.o)
 .debug_frame   0x000000000000002a       0x68 /opt/mspgcc/bin/../lib/gcc/msp430/4.7.3/../../../../msp430/lib/mmpy-16/libc.a(sprintf.o)
 .debug_frame   0x0000000000000092       0xa0 /opt/mspgcc/bin/../lib/gcc/msp430/4.7.3/../../../../msp430/lib/mmpy-16/libc.a(vuprintf.o)
 .debug_frame   0x0000000000000132       0x24 /opt/mspgcc/bin/../lib/gcc/msp430/4.7.3/../../../../msp430/lib/mmpy-16/libc.a(puts.o)
 .debug_frame   0x0000000000000156       0x3c /opt/mspgcc/bin/../lib/gcc/msp430/4.7.3/../../../../msp430/lib/mmpy-16/libc.a(rand.o)
 .debug_frame   0x0000000000000192       0x28 /opt/mspgcc/bin/../lib/gcc/msp430/4.7.3/../../../../msp430/lib/mmpy-16/libc.a(memcmp.o)
 .debug_frame   0x00000000000001ba       0x32 /opt/mspgcc/bin/../lib/gcc/msp430/4.7.3/../../../../msp430/lib/mmpy-16/libc.a(memcpy.o)
 .debug_frame   0x00000000000001ec       0x32 /opt/mspgcc/bin/../lib/gcc/msp430/4.7.3/../../../../msp430/lib/mmpy-16/libc.a(memmove.o)
 .debug_frame   0x000000000000021e       0x32 /opt/mspgcc/bin/../lib/gcc/msp430/4.7.3/../../../../msp430/lib/mmpy-16/libc.a(memset.o)

.debug_str      0x0000000000000000      0x458
 *(.debug_str)
 .debug_str     0x0000000000000000       0xe7 /opt/mspgcc/bin/../lib/gcc/msp430/4.7.3/../../../../msp430/lib/mmpy-16/libc.a(printf.o)
                                        0x138 (size before relaxing)
 .debug_str     0x00000000000000e7       0x75 /opt/mspgcc/bin/../lib/gcc/msp430/4.7.3/../../../../msp430/lib/mmpy-16/libc.a(sprintf.o)
                                        0x19d (size before relaxing)
 .debug_str     0x000000000000015c      0x218 /opt/mspgcc/bin/../lib/gcc/msp430/4.7.3/../../../../msp430/lib/mmpy-16/libc.a(vuprintf.o)
                                        0x383 (size before relaxing)
 .debug_str     0x0000000000000374       0x1d /opt/mspgcc/bin/../lib/gcc/msp430/4.7.3/../../../../msp430/lib/mmpy-16/libc.a(puts.o)
                                         0xfd (size before relaxing)
 .debug_str     0x0000000000000391       0x2f /opt/mspgcc/bin/../lib/gcc/msp430/4.7.3/../../../../msp430/lib/mmpy-16/libc.a(rand.o)
                                        0x114 (size before relaxing)
 .debug_str     0x00000000000003c0       0x19 /opt/mspgcc/bin/../lib/gcc/msp430/4.7.3/../../../../msp430/lib/mmpy-16/libc.a(memcmp.o)
                                        0x100 (size before relaxing)
 .debug_str     0x00000000000003d9       0x3e /opt/mspgcc/bin/../lib/gcc/msp430/4.7.3/../../../../msp430/lib/mmpy-16/libc.a(memcpy.o)
                                        0x12e (size before relaxing)
 .debug_str     0x0000000000000417       0x1b /opt/mspgcc/bin/../lib/gcc/msp430/4.7.3/../../../../msp430/lib/mmpy-16/libc.a(memmove.o)
                                        0x130 (size before relaxing)
 .debug_str     0x0000000000000432       0x26 /opt/mspgcc/bin/../lib/gcc/msp430/4.7.3/../../../../msp430/lib/mmpy-16/libc.a(memset.o)
                                        0x12c (size before relaxing)

.debug_loc      0x0000000000000000      0xefe
 *(.debug_loc)
 .debug_loc     0x0000000000000000       0x4c /opt/mspgcc/bin/../lib/gcc/msp430/4.7.3/../../../../msp430/lib/mmpy-16/libc.a(printf.o)
 .debug_loc     0x000000000000004c      0x13a /opt/mspgcc/bin/../lib/gcc/msp430/4.7.3/../../../../msp430/lib/mmpy-16/libc.a(sprintf.o)
 .debug_loc     0x0000000000000186      0x80f /opt/mspgcc/bin/../lib/gcc/msp430/4.7.3/../../../../msp430/lib/mmpy-16/libc.a(vuprintf.o)
 .debug_loc     0x0000000000000995       0x26 /opt/mspgcc/bin/../lib/gcc/msp430/4.7.3/../../../../msp430/lib/mmpy-16/libc.a(puts.o)
 .debug_loc     0x00000000000009bb       0x4f /opt/mspgcc/bin/../lib/gcc/msp430/4.7.3/../../../../msp430/lib/mmpy-16/libc.a(rand.o)
 .debug_loc     0x0000000000000a0a       0x4d /opt/mspgcc/bin/../lib/gcc/msp430/4.7.3/../../../../msp430/lib/mmpy-16/libc.a(memcmp.o)
 .debug_loc     0x0000000000000a57      0x1e3 /opt/mspgcc/bin/../lib/gcc/msp430/4.7.3/../../../../msp430/lib/mmpy-16/libc.a(memcpy.o)
 .debug_loc     0x0000000000000c3a      0x1e3 /opt/mspgcc/bin/../lib/gcc/msp430/4.7.3/../../../../msp430/lib/mmpy-16/libc.a(memmove.o)
 .debug_loc     0x0000000000000e1d       0xe1 /opt/mspgcc/bin/../lib/gcc/msp430/4.7.3/../../../../msp430/lib/mmpy-16/libc.a(memset.o)

.debug_macinfo
 *(.debug_macinfo)

.debug_pubtypes
 *(.debug_pubtypes)

.debug_ranges   0x0000000000000000       0x84
 *(.debug_ranges)
 .debug_ranges  0x0000000000000000        0xc /opt/mspgcc/bin/../lib/gcc/msp430/4.7.3/../../../../msp430/lib/mmpy-16/libc.a(printf.o)
 .debug_ranges  0x000000000000000c       0x1c /opt/mspgcc/bin/../lib/gcc/msp430/4.7.3/../../../../msp430/lib/mmpy-16/libc.a(sprintf.o)
 .debug_ranges  0x0000000000000028       0x24 /opt/mspgcc/bin/../lib/gcc/msp430/4.7.3/../../../../msp430/lib/mmpy-16/libc.a(vuprintf.o)
 .debug_ranges  0x000000000000004c        0x8 /opt/mspgcc/bin/../lib/gcc/msp430/4.7.3/../../../../msp430/lib/mmpy-16/libc.a(puts.o)
 .debug_ranges  0x0000000000000054       0x10 /opt/mspgcc/bin/../lib/gcc/msp430/4.7.3/../../../../msp430/lib/mmpy-16/libc.a(rand.o)
 .debug_ranges  0x0000000000000064        0x8 /opt/mspgcc/bin/../lib/gcc/msp430/4.7.3/../../../../msp430/lib/mmpy-16/libc.a(memcmp.o)
 .debug_ranges  0x000000000000006c        0x8 /opt/mspgcc/bin/../lib/gcc/msp430/4.7.3/../../../../msp430/lib/mmpy-16/libc.a(memcpy.o)
 .debug_ranges  0x0000000000000074        0x8 /opt/mspgcc/bin/../lib/gcc/msp430/4.7.3/../../../../msp430/lib/mmpy-16/libc.a(memmove.o)
 .debug_ranges  0x000000000000007c        0x8 /opt/mspgcc/bin/../lib/gcc/msp430/4.7.3/../../../../msp430/lib/mmpy-16/libc.a(memset.o)
                0x0000000000003900                PROVIDE (__stack, (ORIGIN (ram) + 0x2800))
                0x000000000000ecba                __data_start_rom = _etext
                0x000000000000edfe                __data_end_rom = (_etext + SIZEOF (.data))
OUTPUT(build/sky/border-router.sky elf32-msp430)
