Archive member included to satisfy reference by file (symbol)

build/native/contiki-ng-native.a(webserver.o)
                              border-router.o (controller)
build/native/contiki-ng-native.a(contiki-main.o)
                              /usr/lib/gcc/x86_64-linux-gnu/9/../../../x86_64-linux-gnu/Scrt1.o (main)
build/native/contiki-ng-native.a(autostart.o)
                              build/native/contiki-ng-native.a(contiki-main.o) (autostart_start)
build/native/contiki-ng-native.a(ctimer.o)
                              build/native/contiki-ng-native.a(contiki-main.o) (ctimer_init)
build/native/contiki-ng-native.a(log.o)
                              build/native/contiki-ng-native.a(contiki-main.o) (log_6addr)
build/native/contiki-ng-native.a(energest.o)
                              build/native/contiki-ng-native.a(contiki-main.o) (energest_init)
build/native/contiki-ng-native.a(etimer.o)
                              build/native/contiki-ng-native.a(contiki-main.o) (etimer_process)
build/native/contiki-ng-native.a(node-id.o)
                              build/native/contiki-ng-native.a(contiki-main.o) (node_id_init)
build/native/contiki-ng-native.a(rtimer.o)
                              build/native/contiki-ng-native.a(contiki-main.o) (rtimer_init)
build/native/contiki-ng-native.a(process.o)
                              build/native/contiki-ng-native.a(ctimer.o) (process_current)
build/native/contiki-ng-native.a(timer.o)
                              build/native/contiki-ng-native.a(etimer.o) (timer_set)
build/native/contiki-ng-native.a(list.o)
                              build/native/contiki-ng-native.a(ctimer.o) (list_init)
build/native/contiki-ng-native.a(queuebuf.o)
                              build/native/contiki-ng-native.a(contiki-main.o) (queuebuf_init)
build/native/contiki-ng-native.a(packetbuf.o)
                              build/native/contiki-ng-native.a(queuebuf.o) (packetbuf_copyto)
build/native/contiki-ng-native.a(netstack.o)
                              build/native/contiki-ng-native.a(contiki-main.o) (netstack_init)
build/native/contiki-ng-native.a(linkaddr.o)
                              build/native/contiki-ng-native.a(packetbuf.o) (linkaddr_copy)
build/native/contiki-ng-native.a(uip-sr.o)
                              build/native/contiki-ng-native.a(webserver.o) (uip_sr_num_nodes)
build/native/contiki-ng-native.a(uip-ds6.o)
                              build/native/contiki-ng-native.a(contiki-main.o) (uip_ds6_get_link_local)
build/native/contiki-ng-native.a(uip-ds6-route.o)
                              build/native/contiki-ng-native.a(uip-ds6.o) (uip_ds6_route_init)
build/native/contiki-ng-native.a(psock.o)
                              build/native/contiki-ng-native.a(webserver.o) (psock_send)
build/native/contiki-ng-native.a(tcpip.o)
                              build/native/contiki-ng-native.a(contiki-main.o) (tcpip_process)
build/native/contiki-ng-native.a(uip6.o)
                              build/native/contiki-ng-native.a(tcpip.o) (uip_aligned_buf)
build/native/contiki-ng-native.a(uip-ds6-nbr.o)
                              build/native/contiki-ng-native.a(uip-ds6.o) (uip_ds6_neighbors_init)
build/native/contiki-ng-native.a(uip-nd6.o)
                              build/native/contiki-ng-native.a(uip6.o) (uip_nd6_init)
build/native/contiki-ng-native.a(simple-udp.o)
                              build/native/contiki-ng-native.a(webserver.o) (simple_udp_sendto)
build/native/contiki-ng-native.a(sicslowpan.o)
                              build/native/contiki-ng-native.a(contiki-main.o) (sicslowpan_driver)
build/native/contiki-ng-native.a(uiplib.o)
                              build/native/contiki-ng-native.a(webserver.o) (uiplib_ip6addrconv)
build/native/contiki-ng-native.a(rpl.o)
                              build/native/contiki-ng-native.a(webserver.o) (rpl_lite_driver)
build/native/contiki-ng-native.a(rpl-icmp6.o)
                              build/native/contiki-ng-native.a(webserver.o) (rpl_icmp6_pdao_output)
build/native/contiki-ng-native.a(rpl-dag-root.o)
                              build/native/contiki-ng-native.a(rpl.o) (rpl_dag_root_set_prefix)
build/native/contiki-ng-native.a(tun-bridge.o)
                              build/native/contiki-ng-native.a(tcpip.o) (rpl_interface)
build/native/contiki-ng-native.a(slip-dev.o)
                              build/native/contiki-ng-native.a(tun-bridge.o) (slip_init)
build/native/contiki-ng-native.a(slip-config.o)
                              build/native/contiki-ng-native.a(slip-dev.o) (slip_config_verbose)
build/native/contiki-ng-native.a(border-router-m)
                              build/native/contiki-ng-native.a(contiki-main.o) (border_router_mac_driver)
build/native/contiki-ng-native.a(border-router-c)
                              build/native/contiki-ng-native.a(slip-dev.o) (command_context)
build/native/contiki-ng-native.a(cmd.o)
                              build/native/contiki-ng-native.a(slip-dev.o) (cmd_input)
build/native/contiki-ng-native.a(packetutils.o)
                              build/native/contiki-ng-native.a(border-router-m) (packetutils_serialize_atts)
build/native/contiki-ng-native.a(shell.o)
                              build/native/contiki-ng-native.a(border-router-c) (shell_input)
build/native/contiki-ng-native.a(shell-commands.)
                              build/native/contiki-ng-native.a(shell.o) (shell_commands_init)
build/native/contiki-ng-native.a(serial-shell.o)
                              build/native/contiki-ng-native.a(contiki-main.o) (serial_shell_init)
build/native/contiki-ng-native.a(platform.o)
                              build/native/contiki-ng-native.a(tun-bridge.o) (select_set_callback)
build/native/contiki-ng-native.a(clock.o)
                              build/native/contiki-ng-native.a(etimer.o) (clock_time)
build/native/contiki-ng-native.a(rtimer-arch.o)
                              build/native/contiki-ng-native.a(rtimer.o) (rtimer_arch_init)
build/native/contiki-ng-native.a(watchdog.o)
                              build/native/contiki-ng-native.a(contiki-main.o) (watchdog_init)
build/native/contiki-ng-native.a(httpd-simple.o)
                              build/native/contiki-ng-native.a(webserver.o) (httpd_appcall)
build/native/contiki-ng-native.a(rpl-border-rout)
                              build/native/contiki-ng-native.a(contiki-main.o) (rpl_border_router_init)
build/native/contiki-ng-native.a(stimer.o)
                              build/native/contiki-ng-native.a(uip-ds6.o) (stimer_set)
build/native/contiki-ng-native.a(memb.o)
                              build/native/contiki-ng-native.a(queuebuf.o) (memb_init)
build/native/contiki-ng-native.a(random.o)
                              build/native/contiki-ng-native.a(uip-ds6.o) (random_rand)
build/native/contiki-ng-native.a(button-hal.o)
                              build/native/contiki-ng-native.a(platform.o) (button_hal_init)
build/native/contiki-ng-native.a(serial-line.o)
                              build/native/contiki-ng-native.a(border-router-c) (serial_line_event_message)
build/native/contiki-ng-native.a(leds.o)
                              build/native/contiki-ng-native.a(platform.o) (leds_init)
build/native/contiki-ng-native.a(nullradio.o)
                              build/native/contiki-ng-native.a(netstack.o) (nullradio_driver)
build/native/contiki-ng-native.a(gpio-hal.o)
                              build/native/contiki-ng-native.a(button-hal.o) (gpio_hal_register_handler)
build/native/contiki-ng-native.a(nbr-table.o)
                              build/native/contiki-ng-native.a(uip-ds6-nbr.o) (nbr_table_register)
build/native/contiki-ng-native.a(link-stats.o)
                              build/native/contiki-ng-native.a(sicslowpan.o) (link_stats_packet_sent)
build/native/contiki-ng-native.a(mac.o)
                              build/native/contiki-ng-native.a(border-router-m) (mac_call_sent_callback)
build/native/contiki-ng-native.a(framer-802154.o)
                              build/native/contiki-ng-native.a(border-router-m) (framer_802154)
build/native/contiki-ng-native.a(frame802154.o)
                              build/native/contiki-ng-native.a(framer-802154.o) (frame802154_get_pan_id)
build/native/contiki-ng-native.a(uipbuf.o)
                              build/native/contiki-ng-native.a(tcpip.o) (uipbuf_clear)
build/native/contiki-ng-native.a(uip-icmp6.o)
                              build/native/contiki-ng-native.a(uip6.o) (uip_icmp6_input)
build/native/contiki-ng-native.a(uip-packetqueue)
                              build/native/contiki-ng-native.a(uip-ds6-nbr.o) (uip_packetqueue_new)
build/native/contiki-ng-native.a(uip-udp-packet.)
                              build/native/contiki-ng-native.a(simple-udp.o) (uip_udp_packet_sendto)
build/native/contiki-ng-native.a(rpl-nbr-policy.)
                              build/native/contiki-ng-native.a(nbr-table.o) (rpl_nbr_policy_find_removable)
build/native/contiki-ng-native.a(rpl-neighbor.o)
                              build/native/contiki-ng-native.a(shell-commands.) (rpl_neighbors)
build/native/contiki-ng-native.a(rpl-dag.o)
                              build/native/contiki-ng-native.a(rpl.o) (curr_instance)
build/native/contiki-ng-native.a(rpl-timers.o)
                              build/native/contiki-ng-native.a(rpl-dag.o) (rpl_timers_schedule_periodic_dis)
build/native/contiki-ng-native.a(rpl-ext-header.)
                              build/native/contiki-ng-native.a(rpl.o) (rpl_ext_header_srh_get_next_hop)
build/native/contiki-ng-native.a(rpl-mrhof.o)
                              build/native/contiki-ng-native.a(rpl-dag.o) (rpl_mrhof)
build/native/contiki-ng-native.a(border-router-n)
                              build/native/contiki-ng-native.a(border-router-c) (border_router_set_mac)
build/native/contiki-ng-native.a(buttons.o)
                              build/native/contiki-ng-native.a(button-hal.o) (button_hal_button_count)
build/native/contiki-ng-native.a(int-master.o)
                              build/native/contiki-ng-native.a(button-hal.o) (int_master_read_and_disable)
build/native/contiki-ng-native.a(gpio-hal-arch.o)
                              build/native/contiki-ng-native.a(gpio-hal.o) (gpio_hal_arch_init)
build/native/contiki-ng-native.a(ringbuf.o)
                              build/native/contiki-ng-native.a(serial-line.o) (ringbuf_init)
/usr/lib/x86_64-linux-gnu/libc_nonshared.a(elf-init.oS)
                              /usr/lib/gcc/x86_64-linux-gnu/9/../../../x86_64-linux-gnu/Scrt1.o (__libc_csu_init)
/usr/lib/x86_64-linux-gnu/libc_nonshared.a(atexit.oS)
                              build/native/contiki-ng-native.a(tun-bridge.o) (atexit)

Merging program properties


As-needed library included to satisfy reference by file (symbol)

libc.so.6                     build/native/contiki-ng-native.a(slip-dev.o) (socket@@GLIBC_2.2.5)

Allocating common symbols
Common symbol       size              file

uip_ds6_prefix_list
                    0x60              build/native/contiki-ng-native.a(uip-ds6.o)
linkaddr_node_addr  0x8               build/native/contiki-ng-native.a(linkaddr.o)
slip_config_ipaddr  0x8               build/native/contiki-ng-native.a(slip-config.o)
periodic_timer      0x40              build/native/contiki-ng-native.a(link-stats.o)
uip_slen            0x2               build/native/contiki-ng-native.a(uip6.o)
uip_ds6_timer_periodic
                    0x20              build/native/contiki-ng-native.a(uip-ds6.o)
uip_acc32           0x4               build/native/contiki-ng-native.a(uip6.o)
eb_per_time_source  0x30              build/native/contiki-ng-native.a(contiki-main.o)
unicast_per_neighbor_rpl_storing
                    0x30              build/native/contiki-ng-native.a(contiki-main.o)
uip_conns           0x1c0             build/native/contiki-ng-native.a(uip6.o)
command_context     0x1               build/native/contiki-ng-native.a(border-router-c)
slip_packet_end     0x4               build/native/contiki-ng-native.a(slip-dev.o)
button_hal_periodic_event
                    0x1               build/native/contiki-ng-native.a(button-hal.o)
uip_ds6_netif_addr_list_offset
                    0x1               build/native/contiki-ng-native.a(uip-ds6.o)
uip_lladdr          0x8               build/native/contiki-ng-native.a(uip6.o)
button_hal_press_event
                    0x1               build/native/contiki-ng-native.a(button-hal.o)
serial_line_event_message
                    0x1               build/native/contiki-ng-native.a(serial-line.o)
uip_appdata         0x8               build/native/contiki-ng-native.a(uip6.o)
prefix_set          0x1               build/native/contiki-ng-native.a(rpl-border-rout)
unicast_per_neighbor_rpl_ns
                    0x30              build/native/contiki-ng-native.a(contiki-main.o)
VIA2                0x10              build/native/contiki-ng-native.a(webserver.o)
uip_ds6_if          0x138             build/native/contiki-ng-native.a(uip-ds6.o)
slip_begin          0x4               build/native/contiki-ng-native.a(slip-dev.o)
uip_flags           0x1               build/native/contiki-ng-native.a(uip6.o)
uip_ds6_timer_ra    0x10              build/native/contiki-ng-native.a(uip-ds6.o)
default_common      0x30              build/native/contiki-ng-native.a(contiki-main.o)
slip_end            0x4               build/native/contiki-ng-native.a(slip-dev.o)
packetbuf_attrs     0x1a              build/native/contiki-ng-native.a(packetbuf.o)
uip_ds6_addr_size   0x1               build/native/contiki-ng-native.a(uip-ds6.o)
uip_aligned_buf     0x500             build/native/contiki-ng-native.a(uip6.o)
contiki_argv        0x8               build/native/contiki-ng-native.a(platform.o)
rpl_multicast_addr  0x10              build/native/contiki-ng-native.a(rpl.o)
uip_listenports     0x28              build/native/contiki-ng-native.a(uip6.o)
uip_len             0x2               build/native/contiki-ng-native.a(uip6.o)
tcpip_event         0x1               build/native/contiki-ng-native.a(tcpip.o)
uip_sappdata        0x8               build/native/contiki-ng-native.a(uip6.o)
uip_udp_conns       0x140             build/native/contiki-ng-native.a(uip6.o)
button_hal_release_event
                    0x1               build/native/contiki-ng-native.a(button-hal.o)
PDAO_SET            0x4               build/native/contiki-ng-native.a(webserver.o)
slip_buf            0x800             build/native/contiki-ng-native.a(slip-dev.o)
packetbuf_addrs     0x10              build/native/contiki-ng-native.a(packetbuf.o)
VIA1                0x10              build/native/contiki-ng-native.a(webserver.o)
slip_packet_count   0x4               build/native/contiki-ng-native.a(slip-dev.o)
uip_udp_conn        0x8               build/native/contiki-ng-native.a(uip6.o)
curr_instance       0x2a0             build/native/contiki-ng-native.a(rpl-dag.o)
uip_conn            0x8               build/native/contiki-ng-native.a(uip6.o)

Discarded input sections

 .note.GNU-stack
                0x0000000000000000        0x0 /usr/lib/gcc/x86_64-linux-gnu/9/../../../x86_64-linux-gnu/Scrt1.o
 .note.gnu.property
                0x0000000000000000       0x20 /usr/lib/gcc/x86_64-linux-gnu/9/../../../x86_64-linux-gnu/crti.o
 .note.GNU-stack
                0x0000000000000000        0x0 /usr/lib/gcc/x86_64-linux-gnu/9/../../../x86_64-linux-gnu/crti.o
 .note.GNU-stack
                0x0000000000000000        0x0 /usr/lib/gcc/x86_64-linux-gnu/9/crtbeginS.o
 .note.gnu.property
                0x0000000000000000       0x20 /usr/lib/gcc/x86_64-linux-gnu/9/crtbeginS.o
 .note.GNU-stack
                0x0000000000000000        0x0 border-router.o
 .note.gnu.property
                0x0000000000000000       0x20 border-router.o
 .note.GNU-stack
                0x0000000000000000        0x0 build/native/contiki-ng-native.a(webserver.o)
 .note.gnu.property
                0x0000000000000000       0x20 build/native/contiki-ng-native.a(webserver.o)
 .note.GNU-stack
                0x0000000000000000        0x0 build/native/contiki-ng-native.a(contiki-main.o)
 .note.gnu.property
                0x0000000000000000       0x20 build/native/contiki-ng-native.a(contiki-main.o)
 .note.GNU-stack
                0x0000000000000000        0x0 build/native/contiki-ng-native.a(autostart.o)
 .note.gnu.property
                0x0000000000000000       0x20 build/native/contiki-ng-native.a(autostart.o)
 .note.GNU-stack
                0x0000000000000000        0x0 build/native/contiki-ng-native.a(ctimer.o)
 .note.gnu.property
                0x0000000000000000       0x20 build/native/contiki-ng-native.a(ctimer.o)
 .note.GNU-stack
                0x0000000000000000        0x0 build/native/contiki-ng-native.a(log.o)
 .note.gnu.property
                0x0000000000000000       0x20 build/native/contiki-ng-native.a(log.o)
 .note.GNU-stack
                0x0000000000000000        0x0 build/native/contiki-ng-native.a(energest.o)
 .note.gnu.property
                0x0000000000000000       0x20 build/native/contiki-ng-native.a(energest.o)
 .note.GNU-stack
                0x0000000000000000        0x0 build/native/contiki-ng-native.a(etimer.o)
 .note.gnu.property
                0x0000000000000000       0x20 build/native/contiki-ng-native.a(etimer.o)
 .note.GNU-stack
                0x0000000000000000        0x0 build/native/contiki-ng-native.a(node-id.o)
 .note.gnu.property
                0x0000000000000000       0x20 build/native/contiki-ng-native.a(node-id.o)
 .note.GNU-stack
                0x0000000000000000        0x0 build/native/contiki-ng-native.a(rtimer.o)
 .note.gnu.property
                0x0000000000000000       0x20 build/native/contiki-ng-native.a(rtimer.o)
 .note.GNU-stack
                0x0000000000000000        0x0 build/native/contiki-ng-native.a(process.o)
 .note.gnu.property
                0x0000000000000000       0x20 build/native/contiki-ng-native.a(process.o)
 .note.GNU-stack
                0x0000000000000000        0x0 build/native/contiki-ng-native.a(timer.o)
 .note.gnu.property
                0x0000000000000000       0x20 build/native/contiki-ng-native.a(timer.o)
 .note.GNU-stack
                0x0000000000000000        0x0 build/native/contiki-ng-native.a(list.o)
 .note.gnu.property
                0x0000000000000000       0x20 build/native/contiki-ng-native.a(list.o)
 .note.GNU-stack
                0x0000000000000000        0x0 build/native/contiki-ng-native.a(queuebuf.o)
 .note.gnu.property
                0x0000000000000000       0x20 build/native/contiki-ng-native.a(queuebuf.o)
 .note.GNU-stack
                0x0000000000000000        0x0 build/native/contiki-ng-native.a(packetbuf.o)
 .note.gnu.property
                0x0000000000000000       0x20 build/native/contiki-ng-native.a(packetbuf.o)
 .note.GNU-stack
                0x0000000000000000        0x0 build/native/contiki-ng-native.a(netstack.o)
 .note.gnu.property
                0x0000000000000000       0x20 build/native/contiki-ng-native.a(netstack.o)
 .note.GNU-stack
                0x0000000000000000        0x0 build/native/contiki-ng-native.a(linkaddr.o)
 .note.gnu.property
                0x0000000000000000       0x20 build/native/contiki-ng-native.a(linkaddr.o)
 .note.GNU-stack
                0x0000000000000000        0x0 build/native/contiki-ng-native.a(uip-sr.o)
 .note.gnu.property
                0x0000000000000000       0x20 build/native/contiki-ng-native.a(uip-sr.o)
 .note.GNU-stack
                0x0000000000000000        0x0 build/native/contiki-ng-native.a(uip-ds6.o)
 .note.gnu.property
                0x0000000000000000       0x20 build/native/contiki-ng-native.a(uip-ds6.o)
 .note.GNU-stack
                0x0000000000000000        0x0 build/native/contiki-ng-native.a(uip-ds6-route.o)
 .note.gnu.property
                0x0000000000000000       0x20 build/native/contiki-ng-native.a(uip-ds6-route.o)
 .note.GNU-stack
                0x0000000000000000        0x0 build/native/contiki-ng-native.a(psock.o)
 .note.gnu.property
                0x0000000000000000       0x20 build/native/contiki-ng-native.a(psock.o)
 .note.GNU-stack
                0x0000000000000000        0x0 build/native/contiki-ng-native.a(tcpip.o)
 .note.gnu.property
                0x0000000000000000       0x20 build/native/contiki-ng-native.a(tcpip.o)
 .note.GNU-stack
                0x0000000000000000        0x0 build/native/contiki-ng-native.a(uip6.o)
 .note.gnu.property
                0x0000000000000000       0x20 build/native/contiki-ng-native.a(uip6.o)
 .note.GNU-stack
                0x0000000000000000        0x0 build/native/contiki-ng-native.a(uip-ds6-nbr.o)
 .note.gnu.property
                0x0000000000000000       0x20 build/native/contiki-ng-native.a(uip-ds6-nbr.o)
 .note.GNU-stack
                0x0000000000000000        0x0 build/native/contiki-ng-native.a(uip-nd6.o)
 .note.gnu.property
                0x0000000000000000       0x20 build/native/contiki-ng-native.a(uip-nd6.o)
 .note.GNU-stack
                0x0000000000000000        0x0 build/native/contiki-ng-native.a(simple-udp.o)
 .note.gnu.property
                0x0000000000000000       0x20 build/native/contiki-ng-native.a(simple-udp.o)
 .note.GNU-stack
                0x0000000000000000        0x0 build/native/contiki-ng-native.a(sicslowpan.o)
 .note.gnu.property
                0x0000000000000000       0x20 build/native/contiki-ng-native.a(sicslowpan.o)
 .note.GNU-stack
                0x0000000000000000        0x0 build/native/contiki-ng-native.a(uiplib.o)
 .note.gnu.property
                0x0000000000000000       0x20 build/native/contiki-ng-native.a(uiplib.o)
 .note.GNU-stack
                0x0000000000000000        0x0 build/native/contiki-ng-native.a(rpl.o)
 .note.gnu.property
                0x0000000000000000       0x20 build/native/contiki-ng-native.a(rpl.o)
 .note.GNU-stack
                0x0000000000000000        0x0 build/native/contiki-ng-native.a(rpl-icmp6.o)
 .note.gnu.property
                0x0000000000000000       0x20 build/native/contiki-ng-native.a(rpl-icmp6.o)
 .note.GNU-stack
                0x0000000000000000        0x0 build/native/contiki-ng-native.a(rpl-dag-root.o)
 .note.gnu.property
                0x0000000000000000       0x20 build/native/contiki-ng-native.a(rpl-dag-root.o)
 .note.GNU-stack
                0x0000000000000000        0x0 build/native/contiki-ng-native.a(tun-bridge.o)
 .note.gnu.property
                0x0000000000000000       0x20 build/native/contiki-ng-native.a(tun-bridge.o)
 .note.GNU-stack
                0x0000000000000000        0x0 build/native/contiki-ng-native.a(slip-dev.o)
 .note.gnu.property
                0x0000000000000000       0x20 build/native/contiki-ng-native.a(slip-dev.o)
 .note.GNU-stack
                0x0000000000000000        0x0 build/native/contiki-ng-native.a(slip-config.o)
 .note.gnu.property
                0x0000000000000000       0x20 build/native/contiki-ng-native.a(slip-config.o)
 .note.GNU-stack
                0x0000000000000000        0x0 build/native/contiki-ng-native.a(border-router-m)
 .note.gnu.property
                0x0000000000000000       0x20 build/native/contiki-ng-native.a(border-router-m)
 .note.GNU-stack
                0x0000000000000000        0x0 build/native/contiki-ng-native.a(border-router-c)
 .note.gnu.property
                0x0000000000000000       0x20 build/native/contiki-ng-native.a(border-router-c)
 .note.GNU-stack
                0x0000000000000000        0x0 build/native/contiki-ng-native.a(cmd.o)
 .note.gnu.property
                0x0000000000000000       0x20 build/native/contiki-ng-native.a(cmd.o)
 .note.GNU-stack
                0x0000000000000000        0x0 build/native/contiki-ng-native.a(packetutils.o)
 .note.gnu.property
                0x0000000000000000       0x20 build/native/contiki-ng-native.a(packetutils.o)
 .note.GNU-stack
                0x0000000000000000        0x0 build/native/contiki-ng-native.a(shell.o)
 .note.gnu.property
                0x0000000000000000       0x20 build/native/contiki-ng-native.a(shell.o)
 .note.GNU-stack
                0x0000000000000000        0x0 build/native/contiki-ng-native.a(shell-commands.)
 .note.gnu.property
                0x0000000000000000       0x20 build/native/contiki-ng-native.a(shell-commands.)
 .note.GNU-stack
                0x0000000000000000        0x0 build/native/contiki-ng-native.a(serial-shell.o)
 .note.gnu.property
                0x0000000000000000       0x20 build/native/contiki-ng-native.a(serial-shell.o)
 .note.GNU-stack
                0x0000000000000000        0x0 build/native/contiki-ng-native.a(platform.o)
 .note.gnu.property
                0x0000000000000000       0x20 build/native/contiki-ng-native.a(platform.o)
 .note.GNU-stack
                0x0000000000000000        0x0 build/native/contiki-ng-native.a(clock.o)
 .note.gnu.property
                0x0000000000000000       0x20 build/native/contiki-ng-native.a(clock.o)
 .note.GNU-stack
                0x0000000000000000        0x0 build/native/contiki-ng-native.a(rtimer-arch.o)
 .note.gnu.property
                0x0000000000000000       0x20 build/native/contiki-ng-native.a(rtimer-arch.o)
 .note.GNU-stack
                0x0000000000000000        0x0 build/native/contiki-ng-native.a(watchdog.o)
 .note.gnu.property
                0x0000000000000000       0x20 build/native/contiki-ng-native.a(watchdog.o)
 .note.GNU-stack
                0x0000000000000000        0x0 build/native/contiki-ng-native.a(httpd-simple.o)
 .note.gnu.property
                0x0000000000000000       0x20 build/native/contiki-ng-native.a(httpd-simple.o)
 .note.GNU-stack
                0x0000000000000000        0x0 build/native/contiki-ng-native.a(rpl-border-rout)
 .note.gnu.property
                0x0000000000000000       0x20 build/native/contiki-ng-native.a(rpl-border-rout)
 .note.GNU-stack
                0x0000000000000000        0x0 build/native/contiki-ng-native.a(stimer.o)
 .note.gnu.property
                0x0000000000000000       0x20 build/native/contiki-ng-native.a(stimer.o)
 .note.GNU-stack
                0x0000000000000000        0x0 build/native/contiki-ng-native.a(memb.o)
 .note.gnu.property
                0x0000000000000000       0x20 build/native/contiki-ng-native.a(memb.o)
 .note.GNU-stack
                0x0000000000000000        0x0 build/native/contiki-ng-native.a(random.o)
 .note.gnu.property
                0x0000000000000000       0x20 build/native/contiki-ng-native.a(random.o)
 .note.GNU-stack
                0x0000000000000000        0x0 build/native/contiki-ng-native.a(button-hal.o)
 .note.gnu.property
                0x0000000000000000       0x20 build/native/contiki-ng-native.a(button-hal.o)
 .note.GNU-stack
                0x0000000000000000        0x0 build/native/contiki-ng-native.a(serial-line.o)
 .note.gnu.property
                0x0000000000000000       0x20 build/native/contiki-ng-native.a(serial-line.o)
 .note.GNU-stack
                0x0000000000000000        0x0 build/native/contiki-ng-native.a(leds.o)
 .note.gnu.property
                0x0000000000000000       0x20 build/native/contiki-ng-native.a(leds.o)
 .note.GNU-stack
                0x0000000000000000        0x0 build/native/contiki-ng-native.a(nullradio.o)
 .note.gnu.property
                0x0000000000000000       0x20 build/native/contiki-ng-native.a(nullradio.o)
 .note.GNU-stack
                0x0000000000000000        0x0 build/native/contiki-ng-native.a(gpio-hal.o)
 .note.gnu.property
                0x0000000000000000       0x20 build/native/contiki-ng-native.a(gpio-hal.o)
 .note.GNU-stack
                0x0000000000000000        0x0 build/native/contiki-ng-native.a(nbr-table.o)
 .note.gnu.property
                0x0000000000000000       0x20 build/native/contiki-ng-native.a(nbr-table.o)
 .note.GNU-stack
                0x0000000000000000        0x0 build/native/contiki-ng-native.a(link-stats.o)
 .note.gnu.property
                0x0000000000000000       0x20 build/native/contiki-ng-native.a(link-stats.o)
 .note.GNU-stack
                0x0000000000000000        0x0 build/native/contiki-ng-native.a(mac.o)
 .note.gnu.property
                0x0000000000000000       0x20 build/native/contiki-ng-native.a(mac.o)
 .note.GNU-stack
                0x0000000000000000        0x0 build/native/contiki-ng-native.a(framer-802154.o)
 .note.gnu.property
                0x0000000000000000       0x20 build/native/contiki-ng-native.a(framer-802154.o)
 .note.GNU-stack
                0x0000000000000000        0x0 build/native/contiki-ng-native.a(frame802154.o)
 .note.gnu.property
                0x0000000000000000       0x20 build/native/contiki-ng-native.a(frame802154.o)
 .note.GNU-stack
                0x0000000000000000        0x0 build/native/contiki-ng-native.a(uipbuf.o)
 .note.gnu.property
                0x0000000000000000       0x20 build/native/contiki-ng-native.a(uipbuf.o)
 .note.GNU-stack
                0x0000000000000000        0x0 build/native/contiki-ng-native.a(uip-icmp6.o)
 .note.gnu.property
                0x0000000000000000       0x20 build/native/contiki-ng-native.a(uip-icmp6.o)
 .note.GNU-stack
                0x0000000000000000        0x0 build/native/contiki-ng-native.a(uip-packetqueue)
 .note.gnu.property
                0x0000000000000000       0x20 build/native/contiki-ng-native.a(uip-packetqueue)
 .note.GNU-stack
                0x0000000000000000        0x0 build/native/contiki-ng-native.a(uip-udp-packet.)
 .note.gnu.property
                0x0000000000000000       0x20 build/native/contiki-ng-native.a(uip-udp-packet.)
 .note.GNU-stack
                0x0000000000000000        0x0 build/native/contiki-ng-native.a(rpl-nbr-policy.)
 .note.gnu.property
                0x0000000000000000       0x20 build/native/contiki-ng-native.a(rpl-nbr-policy.)
 .note.GNU-stack
                0x0000000000000000        0x0 build/native/contiki-ng-native.a(rpl-neighbor.o)
 .note.gnu.property
                0x0000000000000000       0x20 build/native/contiki-ng-native.a(rpl-neighbor.o)
 .note.GNU-stack
                0x0000000000000000        0x0 build/native/contiki-ng-native.a(rpl-dag.o)
 .note.gnu.property
                0x0000000000000000       0x20 build/native/contiki-ng-native.a(rpl-dag.o)
 .note.GNU-stack
                0x0000000000000000        0x0 build/native/contiki-ng-native.a(rpl-timers.o)
 .note.gnu.property
                0x0000000000000000       0x20 build/native/contiki-ng-native.a(rpl-timers.o)
 .note.GNU-stack
                0x0000000000000000        0x0 build/native/contiki-ng-native.a(rpl-ext-header.)
 .note.gnu.property
                0x0000000000000000       0x20 build/native/contiki-ng-native.a(rpl-ext-header.)
 .note.GNU-stack
                0x0000000000000000        0x0 build/native/contiki-ng-native.a(rpl-mrhof.o)
 .note.gnu.property
                0x0000000000000000       0x20 build/native/contiki-ng-native.a(rpl-mrhof.o)
 .note.GNU-stack
                0x0000000000000000        0x0 build/native/contiki-ng-native.a(border-router-n)
 .note.gnu.property
                0x0000000000000000       0x20 build/native/contiki-ng-native.a(border-router-n)
 .note.GNU-stack
                0x0000000000000000        0x0 build/native/contiki-ng-native.a(buttons.o)
 .note.gnu.property
                0x0000000000000000       0x20 build/native/contiki-ng-native.a(buttons.o)
 .note.GNU-stack
                0x0000000000000000        0x0 build/native/contiki-ng-native.a(int-master.o)
 .note.gnu.property
                0x0000000000000000       0x20 build/native/contiki-ng-native.a(int-master.o)
 .note.GNU-stack
                0x0000000000000000        0x0 build/native/contiki-ng-native.a(gpio-hal-arch.o)
 .note.gnu.property
                0x0000000000000000       0x20 build/native/contiki-ng-native.a(gpio-hal-arch.o)
 .note.GNU-stack
                0x0000000000000000        0x0 build/native/contiki-ng-native.a(ringbuf.o)
 .note.gnu.property
                0x0000000000000000       0x20 build/native/contiki-ng-native.a(ringbuf.o)
 .note.GNU-stack
                0x0000000000000000        0x0 /usr/lib/x86_64-linux-gnu/libc_nonshared.a(elf-init.oS)
 .note.gnu.property
                0x0000000000000000       0x20 /usr/lib/x86_64-linux-gnu/libc_nonshared.a(elf-init.oS)
 .note.GNU-stack
                0x0000000000000000        0x0 /usr/lib/x86_64-linux-gnu/libc_nonshared.a(atexit.oS)
 .note.gnu.property
                0x0000000000000000       0x20 /usr/lib/x86_64-linux-gnu/libc_nonshared.a(atexit.oS)
 .note.GNU-stack
                0x0000000000000000        0x0 /usr/lib/gcc/x86_64-linux-gnu/9/crtendS.o
 .note.gnu.property
                0x0000000000000000       0x20 /usr/lib/gcc/x86_64-linux-gnu/9/crtendS.o
 .note.gnu.property
                0x0000000000000000       0x20 /usr/lib/gcc/x86_64-linux-gnu/9/../../../x86_64-linux-gnu/crtn.o
 .note.GNU-stack
                0x0000000000000000        0x0 /usr/lib/gcc/x86_64-linux-gnu/9/../../../x86_64-linux-gnu/crtn.o

Memory Configuration

Name             Origin             Length             Attributes
*default*        0x0000000000000000 0xffffffffffffffff

Linker script and memory map

LOAD /usr/lib/gcc/x86_64-linux-gnu/9/../../../x86_64-linux-gnu/Scrt1.o
LOAD /usr/lib/gcc/x86_64-linux-gnu/9/../../../x86_64-linux-gnu/crti.o
LOAD /usr/lib/gcc/x86_64-linux-gnu/9/crtbeginS.o
LOAD border-router.o
LOAD build/native/contiki-ng-native.a
LOAD /usr/lib/gcc/x86_64-linux-gnu/9/../../../x86_64-linux-gnu/librt.so
LOAD /usr/lib/gcc/x86_64-linux-gnu/9/libgcc.a
LOAD /usr/lib/gcc/x86_64-linux-gnu/9/libgcc_s.so
START GROUP
LOAD /lib/x86_64-linux-gnu/libgcc_s.so.1
LOAD /usr/lib/gcc/x86_64-linux-gnu/9/libgcc.a
END GROUP
LOAD /usr/lib/gcc/x86_64-linux-gnu/9/../../../x86_64-linux-gnu/libc.so
START GROUP
LOAD /lib/x86_64-linux-gnu/libc.so.6
LOAD /usr/lib/x86_64-linux-gnu/libc_nonshared.a
LOAD /lib/x86_64-linux-gnu/ld-linux-x86-64.so.2
END GROUP
LOAD /usr/lib/gcc/x86_64-linux-gnu/9/libgcc.a
LOAD /usr/lib/gcc/x86_64-linux-gnu/9/libgcc_s.so
START GROUP
LOAD /lib/x86_64-linux-gnu/libgcc_s.so.1
LOAD /usr/lib/gcc/x86_64-linux-gnu/9/libgcc.a
END GROUP
LOAD /usr/lib/gcc/x86_64-linux-gnu/9/crtendS.o
LOAD /usr/lib/gcc/x86_64-linux-gnu/9/../../../x86_64-linux-gnu/crtn.o
                [!provide]                        PROVIDE (__executable_start = SEGMENT_START ("text-segment", 0x0))
                0x0000000000000318                . = (SEGMENT_START ("text-segment", 0x0) + SIZEOF_HEADERS)

.interp         0x0000000000000318       0x1c
 *(.interp)
 .interp        0x0000000000000318       0x1c /usr/lib/gcc/x86_64-linux-gnu/9/../../../x86_64-linux-gnu/Scrt1.o

.note.gnu.property
                0x0000000000000338       0x20
 .note.gnu.property
                0x0000000000000338       0x20 /usr/lib/gcc/x86_64-linux-gnu/9/../../../x86_64-linux-gnu/Scrt1.o

.note.gnu.build-id
                0x0000000000000358       0x24
 *(.note.gnu.build-id)
 .note.gnu.build-id
                0x0000000000000358       0x24 /usr/lib/gcc/x86_64-linux-gnu/9/../../../x86_64-linux-gnu/Scrt1.o

.note.ABI-tag   0x000000000000037c       0x20
 .note.ABI-tag  0x000000000000037c       0x20 /usr/lib/gcc/x86_64-linux-gnu/9/../../../x86_64-linux-gnu/Scrt1.o

.hash
 *(.hash)

.gnu.hash       0x00000000000003a0     0x13cc
 *(.gnu.hash)
 .gnu.hash      0x00000000000003a0     0x13cc /usr/lib/gcc/x86_64-linux-gnu/9/../../../x86_64-linux-gnu/Scrt1.o

.dynsym         0x0000000000001770     0x4050
 *(.dynsym)
 .dynsym        0x0000000000001770     0x4050 /usr/lib/gcc/x86_64-linux-gnu/9/../../../x86_64-linux-gnu/Scrt1.o

.dynstr         0x00000000000057c0     0x2e5c
 *(.dynstr)
 .dynstr        0x00000000000057c0     0x2e5c /usr/lib/gcc/x86_64-linux-gnu/9/../../../x86_64-linux-gnu/Scrt1.o

.gnu.version    0x000000000000861c      0x55c
 *(.gnu.version)
 .gnu.version   0x000000000000861c      0x55c /usr/lib/gcc/x86_64-linux-gnu/9/../../../x86_64-linux-gnu/Scrt1.o

.gnu.version_d  0x0000000000008b78        0x0
 *(.gnu.version_d)
 .gnu.version_d
                0x0000000000008b78        0x0 /usr/lib/gcc/x86_64-linux-gnu/9/../../../x86_64-linux-gnu/Scrt1.o

.gnu.version_r  0x0000000000008b78       0x80
 *(.gnu.version_r)
 .gnu.version_r
                0x0000000000008b78       0x80 /usr/lib/gcc/x86_64-linux-gnu/9/../../../x86_64-linux-gnu/Scrt1.o

.rela.dyn       0x0000000000008bf8     0x12d8
 *(.rela.init)
 *(.rela.text .rela.text.* .rela.gnu.linkonce.t.*)
 .rela.text     0x0000000000008bf8        0x0 /usr/lib/gcc/x86_64-linux-gnu/9/../../../x86_64-linux-gnu/Scrt1.o
 .rela.text.startup
                0x0000000000008bf8        0x0 /usr/lib/gcc/x86_64-linux-gnu/9/../../../x86_64-linux-gnu/Scrt1.o
 *(.rela.fini)
 *(.rela.rodata .rela.rodata.* .rela.gnu.linkonce.r.*)
 *(.rela.data .rela.data.* .rela.gnu.linkonce.d.*)
 .rela.data.rel.ro
                0x0000000000008bf8      0x210 /usr/lib/gcc/x86_64-linux-gnu/9/../../../x86_64-linux-gnu/Scrt1.o
 .rela.data.rel.local
                0x0000000000008e08      0x810 /usr/lib/gcc/x86_64-linux-gnu/9/../../../x86_64-linux-gnu/Scrt1.o
 .rela.data.rel.ro.local
                0x0000000000009618      0x7b0 /usr/lib/gcc/x86_64-linux-gnu/9/../../../x86_64-linux-gnu/Scrt1.o
 *(.rela.tdata .rela.tdata.* .rela.gnu.linkonce.td.*)
 *(.rela.tbss .rela.tbss.* .rela.gnu.linkonce.tb.*)
 *(.rela.ctors)
 *(.rela.dtors)
 *(.rela.got)
 .rela.got      0x0000000000009dc8       0x78 /usr/lib/gcc/x86_64-linux-gnu/9/../../../x86_64-linux-gnu/Scrt1.o
 *(.rela.bss .rela.bss.* .rela.gnu.linkonce.b.*)
 .rela.bss      0x0000000000009e40       0x60 /usr/lib/gcc/x86_64-linux-gnu/9/../../../x86_64-linux-gnu/Scrt1.o
 *(.rela.ldata .rela.ldata.* .rela.gnu.linkonce.l.*)
 *(.rela.lbss .rela.lbss.* .rela.gnu.linkonce.lb.*)
 *(.rela.lrodata .rela.lrodata.* .rela.gnu.linkonce.lr.*)
 *(.rela.ifunc)
 .rela.ifunc    0x0000000000009ea0        0x0 /usr/lib/gcc/x86_64-linux-gnu/9/../../../x86_64-linux-gnu/Scrt1.o
 .rela.fini_array
                0x0000000000009ea0       0x18 /usr/lib/gcc/x86_64-linux-gnu/9/../../../x86_64-linux-gnu/Scrt1.o
 .rela.init_array
                0x0000000000009eb8       0x18 /usr/lib/gcc/x86_64-linux-gnu/9/../../../x86_64-linux-gnu/Scrt1.o

.rela.plt       0x0000000000009ed0      0x648
 *(.rela.plt)
 .rela.plt      0x0000000000009ed0      0x648 /usr/lib/gcc/x86_64-linux-gnu/9/../../../x86_64-linux-gnu/Scrt1.o
 *(.rela.iplt)
                0x000000000000b000                . = ALIGN (CONSTANT (MAXPAGESIZE))

.init           0x000000000000b000       0x1b
 *(SORT_NONE(.init))
 .init          0x000000000000b000       0x16 /usr/lib/gcc/x86_64-linux-gnu/9/../../../x86_64-linux-gnu/crti.o
                0x000000000000b000                _init
 .init          0x000000000000b016        0x5 /usr/lib/gcc/x86_64-linux-gnu/9/../../../x86_64-linux-gnu/crtn.o

.plt            0x000000000000b020      0x440
 *(.plt)
 .plt           0x000000000000b020      0x440 /usr/lib/gcc/x86_64-linux-gnu/9/../../../x86_64-linux-gnu/Scrt1.o
 *(.iplt)

.plt.got        0x000000000000b460       0x10
 *(.plt.got)
 .plt.got       0x000000000000b460       0x10 /usr/lib/gcc/x86_64-linux-gnu/9/../../../x86_64-linux-gnu/Scrt1.o
                0x000000000000b460                __cxa_finalize@@GLIBC_2.2.5

.plt.sec        0x000000000000b470      0x430
 *(.plt.sec)
 .plt.sec       0x000000000000b470      0x430 /usr/lib/gcc/x86_64-linux-gnu/9/../../../x86_64-linux-gnu/Scrt1.o
                0x000000000000b470                inet_ntop@@GLIBC_2.2.5
                0x000000000000b480                __snprintf_chk@@GLIBC_2.3.4
                0x000000000000b490                putchar@@GLIBC_2.2.5
                0x000000000000b4a0                __errno_location@@GLIBC_2.2.5
                0x000000000000b4b0                strncpy@@GLIBC_2.2.5
                0x000000000000b4c0                strcpy@@GLIBC_2.2.5
                0x000000000000b4d0                __isoc99_fscanf@@GLIBC_2.7
                0x000000000000b4e0                puts@@GLIBC_2.2.5
                0x000000000000b4f0                fread@@GLIBC_2.2.5
                0x000000000000b500                fcntl@@GLIBC_2.2.5
                0x000000000000b510                clock_gettime@@GLIBC_2.17
                0x000000000000b520                write@@GLIBC_2.2.5
                0x000000000000b530                __open_2@@GLIBC_2.7
                0x000000000000b540                fclose@@GLIBC_2.2.5
                0x000000000000b550                cfsetospeed@@GLIBC_2.2.5
                0x000000000000b560                strlen@@GLIBC_2.2.5
                0x000000000000b570                __stack_chk_fail@@GLIBC_2.4
                0x000000000000b580                system@@GLIBC_2.2.5
                0x000000000000b590                tcflush@@GLIBC_2.2.5
                0x000000000000b5a0                strchr@@GLIBC_2.2.5
                0x000000000000b5b0                __fdelt_chk@@GLIBC_2.15
                0x000000000000b5c0                snprintf@@GLIBC_2.2.5
                0x000000000000b5d0                gai_strerror@@GLIBC_2.2.5
                0x000000000000b5e0                gettimeofday@@GLIBC_2.2.5
                0x000000000000b5f0                memset@@GLIBC_2.2.5
                0x000000000000b600                ioctl@@GLIBC_2.2.5
                0x000000000000b610                close@@GLIBC_2.2.5
                0x000000000000b620                read@@GLIBC_2.2.5
                0x000000000000b630                srand@@GLIBC_2.2.5
                0x000000000000b640                memcmp@@GLIBC_2.2.5
                0x000000000000b650                strcmp@@GLIBC_2.2.5
                0x000000000000b660                signal@@GLIBC_2.2.5
                0x000000000000b670                __memmove_chk@@GLIBC_2.3.4
                0x000000000000b680                __memcpy_chk@@GLIBC_2.3.4
                0x000000000000b690                strtol@@GLIBC_2.2.5
                0x000000000000b6a0                clearerr@@GLIBC_2.2.5
                0x000000000000b6b0                memcpy@@GLIBC_2.14
                0x000000000000b6c0                select@@GLIBC_2.2.5
                0x000000000000b6d0                err@@GLIBC_2.2.5
                0x000000000000b6e0                malloc@@GLIBC_2.2.5
                0x000000000000b6f0                fflush@@GLIBC_2.2.5
                0x000000000000b700                ungetc@@GLIBC_2.2.5
                0x000000000000b710                __vsnprintf_chk@@GLIBC_2.3.4
                0x000000000000b720                fdopen@@GLIBC_2.2.5
                0x000000000000b730                setitimer@@GLIBC_2.2.5
                0x000000000000b740                cfmakeraw@@GLIBC_2.2.5
                0x000000000000b750                __printf_chk@@GLIBC_2.3.4
                0x000000000000b760                setvbuf@@GLIBC_2.2.5
                0x000000000000b770                memmove@@GLIBC_2.2.5
                0x000000000000b780                tcgetattr@@GLIBC_2.2.5
                0x000000000000b790                tcsetattr@@GLIBC_2.2.5
                0x000000000000b7a0                open@@GLIBC_2.2.5
                0x000000000000b7b0                fopen@@GLIBC_2.2.5
                0x000000000000b7c0                cfsetispeed@@GLIBC_2.2.5
                0x000000000000b7d0                perror@@GLIBC_2.2.5
                0x000000000000b7e0                getopt@@GLIBC_2.2.5
                0x000000000000b7f0                __cxa_atexit@@GLIBC_2.2.5
                0x000000000000b800                exit@@GLIBC_2.2.5
                0x000000000000b810                connect@@GLIBC_2.2.5
                0x000000000000b820                fwrite@@GLIBC_2.2.5
                0x000000000000b830                __fprintf_chk@@GLIBC_2.3.4
                0x000000000000b840                __strncat_chk@@GLIBC_2.3.4
                0x000000000000b850                getaddrinfo@@GLIBC_2.2.5
                0x000000000000b860                rand@@GLIBC_2.2.5
                0x000000000000b870                usleep@@GLIBC_2.2.5
                0x000000000000b880                freeaddrinfo@@GLIBC_2.2.5
                0x000000000000b890                socket@@GLIBC_2.2.5

.text           0x000000000000b8a0    0x16592
 *(.text.unlikely .text.*_unlikely .text.unlikely.*)
 *(.text.exit .text.exit.*)
 *(.text.startup .text.startup.*)
 .text.startup  0x000000000000b8a0      0x36c build/native/contiki-ng-native.a(contiki-main.o)
                0x000000000000b8a0                main
 *(.text.hot .text.hot.*)
 *(SORT_BY_NAME(.text.sorted.*))
 *(.text .stub .text.* .gnu.linkonce.t.*)
 *fill*         0x000000000000bc0c        0x4 
 .text          0x000000000000bc10       0x2f /usr/lib/gcc/x86_64-linux-gnu/9/../../../x86_64-linux-gnu/Scrt1.o
                0x000000000000bc10                _start
 .text          0x000000000000bc3f        0x0 /usr/lib/gcc/x86_64-linux-gnu/9/../../../x86_64-linux-gnu/crti.o
 *fill*         0x000000000000bc3f        0x1 
 .text          0x000000000000bc40       0xb9 /usr/lib/gcc/x86_64-linux-gnu/9/crtbeginS.o
 *fill*         0x000000000000bcf9        0x7 
 .text          0x000000000000bd00       0x75 border-router.o
 *fill*         0x000000000000bd75        0xb 
 .text          0x000000000000bd80      0x9e8 build/native/contiki-ng-native.a(webserver.o)
                0x000000000000c740                httpd_simple_get_script
 .text          0x000000000000c768        0x0 build/native/contiki-ng-native.a(contiki-main.o)
 *fill*         0x000000000000c768        0x8 
 .text          0x000000000000c770       0x71 build/native/contiki-ng-native.a(autostart.o)
                0x000000000000c770                autostart_start
                0x000000000000c7b0                autostart_exit
 *fill*         0x000000000000c7e1        0xf 
 .text          0x000000000000c7f0      0x32c build/native/contiki-ng-native.a(ctimer.o)
                0x000000000000c8f0                ctimer_init
                0x000000000000c920                ctimer_set_with_process
                0x000000000000c990                ctimer_set
                0x000000000000c9a0                ctimer_reset
                0x000000000000ca00                ctimer_restart
                0x000000000000ca60                ctimer_stop
                0x000000000000cac0                ctimer_expired
 *fill*         0x000000000000cb1c        0x4 
 .text          0x000000000000cb20      0x3c0 build/native/contiki-ng-native.a(log.o)
                0x000000000000cb20                log_6addr
                0x000000000000cb80                log_6addr_compact_snprint
                0x000000000000cbf0                log_6addr_compact
                0x000000000000cc50                log_lladdr
                0x000000000000cd00                log_lladdr_compact
                0x000000000000cd60                log_set_level
                0x000000000000cdf0                log_get_level
                0x000000000000ce70                log_level_to_str
 .text          0x000000000000cee0       0x27 build/native/contiki-ng-native.a(energest.o)
                0x000000000000cee0                energest_init
                0x000000000000cef0                energest_flush
                0x000000000000cf00                energest_get_total_time
 *fill*         0x000000000000cf07        0x9 
 .text          0x000000000000cf10      0x44d build/native/contiki-ng-native.a(etimer.o)
                0x000000000000d1a0                etimer_request_poll
                0x000000000000d1b0                etimer_set
                0x000000000000d1d0                etimer_reset_with_new_interval
                0x000000000000d200                etimer_reset
                0x000000000000d220                etimer_restart
                0x000000000000d240                etimer_adjust
                0x000000000000d270                etimer_expired
                0x000000000000d280                etimer_expiration_time
                0x000000000000d290                etimer_start_time
                0x000000000000d2a0                etimer_pending
                0x000000000000d2c0                etimer_next_expiration_time
                0x000000000000d2e0                etimer_stop
 *fill*         0x000000000000d35d        0x3 
 .text          0x000000000000d360       0x1f build/native/contiki-ng-native.a(node-id.o)
                0x000000000000d360                node_id_init
 *fill*         0x000000000000d37f        0x1 
 .text          0x000000000000d380       0xa9 build/native/contiki-ng-native.a(rtimer.o)
                0x000000000000d380                rtimer_init
                0x000000000000d390                rtimer_set
                0x000000000000d3e0                rtimer_run_next
 *fill*         0x000000000000d429        0x7 
 .text          0x000000000000d430      0x47e build/native/contiki-ng-native.a(process.o)
                0x000000000000d610                process_alloc_event
                0x000000000000d630                process_start
                0x000000000000d6a0                process_exit
                0x000000000000d6b0                process_init
                0x000000000000d6e0                process_run
                0x000000000000d7d0                process_nevents
                0x000000000000d7f0                process_post
                0x000000000000d840                process_post_synch
                0x000000000000d870                process_poll
                0x000000000000d8a0                process_is_running
 *fill*         0x000000000000d8ae        0x2 
 .text          0x000000000000d8b0       0xa9 build/native/contiki-ng-native.a(timer.o)
                0x000000000000d8b0                timer_set
                0x000000000000d8d0                timer_reset
                0x000000000000d900                timer_restart
                0x000000000000d920                timer_expired
                0x000000000000d940                timer_remaining
 *fill*         0x000000000000d959        0x7 
 .text          0x000000000000d960      0x349 build/native/contiki-ng-native.a(list.o)
                0x000000000000d960                list_init
                0x000000000000d970                list_head
                0x000000000000d980                list_copy
                0x000000000000d990                list_tail
                0x000000000000d9c0                list_add
                0x000000000000da40                list_push
                0x000000000000daa0                list_chop
                0x000000000000db00                list_pop
                0x000000000000db20                list_remove
                0x000000000000db70                list_length
                0x000000000000db90                list_insert
                0x000000000000dc50                list_item_next
                0x000000000000dc70                list_contains
 *fill*         0x000000000000dca9        0x7 
 .text          0x000000000000dcb0      0x225 build/native/contiki-ng-native.a(queuebuf.o)
                0x000000000000dcb0                queuebuf_init
                0x000000000000dce0                queuebuf_numfree
                0x000000000000dcf0                queuebuf_new_from_packetbuf
                0x000000000000dd70                queuebuf_update_attr_from_packetbuf
                0x000000000000dd90                queuebuf_update_from_packetbuf
                0x000000000000ddc0                queuebuf_free
                0x000000000000de00                queuebuf_to_packetbuf
                0x000000000000de50                queuebuf_dataptr
                0x000000000000de80                queuebuf_datalen
                0x000000000000de90                queuebuf_addr
                0x000000000000deb0                queuebuf_attr
                0x000000000000ded0                queuebuf_debug_print
 *fill*         0x000000000000ded5        0xb 
 .text          0x000000000000dee0      0x477 build/native/contiki-ng-native.a(packetbuf.o)
                0x000000000000dee0                packetbuf_copyto
                0x000000000000dfd0                packetbuf_hdralloc
                0x000000000000e050                packetbuf_hdrreduce
                0x000000000000e080                packetbuf_set_datalen
                0x000000000000e090                packetbuf_dataptr
                0x000000000000e0b0                packetbuf_hdrptr
                0x000000000000e0c0                packetbuf_datalen
                0x000000000000e0d0                packetbuf_hdrlen
                0x000000000000e0f0                packetbuf_totlen
                0x000000000000e110                packetbuf_remaininglen
                0x000000000000e140                packetbuf_attr_clear
                0x000000000000e1a0                packetbuf_clear
                0x000000000000e1c0                packetbuf_copyfrom
                0x000000000000e230                packetbuf_attr_copyto
                0x000000000000e270                packetbuf_attr_copyfrom
                0x000000000000e2b0                packetbuf_set_attr
                0x000000000000e2d0                packetbuf_attr
                0x000000000000e2f0                packetbuf_set_addr
                0x000000000000e320                packetbuf_addr
                0x000000000000e340                packetbuf_holds_broadcast
 *fill*         0x000000000000e357        0x9 
 .text          0x000000000000e360       0xee build/native/contiki-ng-native.a(netstack.o)
                0x000000000000e360                netstack_process_ip_callback
                0x000000000000e3e0                netstack_ip_packet_processor_add
                0x000000000000e410                uip_ds6_ip_packet_processor_rm
                0x000000000000e430                netstack_init
 *fill*         0x000000000000e44e        0x2 
 .text          0x000000000000e450       0x3f build/native/contiki-ng-native.a(linkaddr.o)
                0x000000000000e450                linkaddr_copy
                0x000000000000e460                linkaddr_cmp
                0x000000000000e480                linkaddr_set_node_addr
 *fill*         0x000000000000e48f        0x1 
 .text          0x000000000000e490      0x5d9 build/native/contiki-ng-native.a(uip-sr.o)
                0x000000000000e4f0                uip_sr_num_nodes
                0x000000000000e500                uip_sr_get_node
                0x000000000000e580                uip_sr_is_addr_reachable
                0x000000000000e630                uip_sr_expire_parent
                0x000000000000e680                uip_sr_update_node
                0x000000000000e790                uip_sr_init
                0x000000000000e7c0                uip_sr_node_head
                0x000000000000e7d0                uip_sr_node_next
                0x000000000000e7e0                uip_sr_periodic
                0x000000000000e8b0                uip_sr_free_all
                0x000000000000e920                uip_sr_link_snprint
 *fill*         0x000000000000ea69        0x7 
 .text          0x000000000000ea70      0xb12 build/native/contiki-ng-native.a(uip-ds6.o)
                0x000000000000eb30                uip_ds6_default_prefix
                0x000000000000eb40                uip_ds6_set_default_prefix
                0x000000000000eb50                uip_ds6_list_loop
                0x000000000000eb90                uip_ds6_prefix_add
                0x000000000000ec40                uip_ds6_prefix_rm
                0x000000000000ec50                uip_ds6_prefix_lookup
                0x000000000000ecb0                uip_ds6_is_addr_onlink
                0x000000000000ed20                uip_ds6_addr_lookup
                0x000000000000ed80                uip_ds6_get_link_local
                0x000000000000edf0                uip_ds6_get_global
                0x000000000000ee60                uip_ds6_maddr_add
                0x000000000000eec0                uip_ds6_addr_add
                0x000000000000efb0                uip_ds6_maddr_rm
                0x000000000000efc0                uip_ds6_maddr_lookup
                0x000000000000f080                uip_ds6_addr_rm
                0x000000000000f0a0                uip_ds6_periodic
                0x000000000000f120                uip_ds6_aaddr_add
                0x000000000000f180                uip_ds6_aaddr_rm
                0x000000000000f190                uip_ds6_aaddr_lookup
                0x000000000000f1f0                uip_ds6_select_src
                0x000000000000f340                uip_ds6_set_addr_iid
                0x000000000000f350                uip_ds6_set_lladdr_from_iid
                0x000000000000f360                get_match_length
                0x000000000000f3c0                uip_ds6_compute_reachable_time
                0x000000000000f400                uip_ds6_init
 *fill*         0x000000000000f582        0xe 
 .text          0x000000000000f590      0x322 build/native/contiki-ng-native.a(uip-ds6-route.o)
                0x000000000000f590                uip_ds6_route_init
                0x000000000000f5c0                uip_ds6_route_nexthop
                0x000000000000f5d0                uip_ds6_route_head
                0x000000000000f5e0                uip_ds6_route_next
                0x000000000000f5f0                uip_ds6_route_is_nexthop
                0x000000000000f600                uip_ds6_route_num_routes
                0x000000000000f610                uip_ds6_route_lookup
                0x000000000000f620                uip_ds6_route_add
                0x000000000000f630                uip_ds6_route_rm
                0x000000000000f640                uip_ds6_route_rm_by_nexthop
                0x000000000000f650                uip_ds6_defrt_head
                0x000000000000f660                uip_ds6_defrt_rm
                0x000000000000f6c0                uip_ds6_defrt_lookup
                0x000000000000f730                uip_ds6_defrt_add
                0x000000000000f7e0                uip_ds6_defrt_choose
                0x000000000000f840                uip_ds6_defrt_periodic
 *fill*         0x000000000000f8b2        0xe 
 .text          0x000000000000f8c0      0x474 build/native/contiki-ng-native.a(psock.o)
                0x000000000000f8c0                psock_send
                0x000000000000f9b0                psock_generator_send
                0x000000000000fa50                psock_datalen
                0x000000000000fa60                psock_newdata
                0x000000000000fa90                psock_readto
                0x000000000000fb90                psock_readbuf_len
                0x000000000000fd10                psock_init
 *fill*         0x000000000000fd34        0xc 
 .text          0x000000000000fd40      0x8c5 build/native/contiki-ng-native.a(tcpip.o)
                0x000000000000fd70                tcpip_output
                0x000000000000fdb0                tcp_connect
                0x000000000000fe00                tcp_unlisten
                0x000000000000fe50                tcp_listen
                0x000000000000fea0                tcp_attach
                0x000000000000fec0                udp_attach
                0x000000000000fee0                udp_new
                0x000000000000ff10                udp_broadcast_new
                0x000000000000ff90                tcpip_input
                0x000000000000ffd0                tcpip_ipv6_output
                0x0000000000010530                tcpip_poll_udp
                0x0000000000010550                tcpip_poll_tcp
                0x0000000000010570                tcpip_uipcall
 *fill*         0x0000000000010605        0xb 
 .text          0x0000000000010610     0x1beb build/native/contiki-ng-native.a(uip6.o)
                0x0000000000010820                uip_add32
                0x00000000000108e0                uip_chksum
                0x0000000000010900                uip_icmp6chksum
                0x0000000000010910                uip_tcpchksum
                0x0000000000010920                uip_udpchksum
                0x0000000000010930                uip_init
                0x0000000000010a10                uip_connect
                0x0000000000010b10                uip_remove_ext_hdr
                0x0000000000010bd0                uip_udp_new
                0x0000000000010ca0                uip_unlisten
                0x0000000000010ce0                uip_listen
                0x0000000000010d20                uip_process
                0x0000000000012140                uip_htons
                0x0000000000012150                uip_htonl
                0x0000000000012170                uip_send
 *fill*         0x00000000000121fb        0x5 
 .text          0x0000000000012200      0x355 build/native/contiki-ng-native.a(uip-ds6-nbr.o)
                0x0000000000012230                uip_ds6_nbr_rm
                0x0000000000012250                uip_ds6_neighbors_init
                0x0000000000012280                uip_ds6_nbr_add
                0x00000000000122d0                uip_ds6_nbr_update_ll
                0x00000000000123a0                uip_ds6_nbr_get_ipaddr
                0x00000000000123b0                uip_ds6_nbr_get_ll
                0x00000000000123d0                uip_ds6_nbr_num
                0x0000000000012430                uip_ds6_nbr_head
                0x0000000000012440                uip_ds6_nbr_next
                0x0000000000012460                uip_ds6_nbr_lookup
                0x00000000000124e0                uip_ds6_nbr_ll_lookup
                0x0000000000012500                uip_ds6_nbr_ipaddr_from_lladdr
                0x0000000000012520                uip_ds6_nbr_lladdr_from_ipaddr
                0x0000000000012550                uip_ds6_link_callback
 *fill*         0x0000000000012555        0xb 
 .text          0x0000000000012560      0x420 build/native/contiki-ng-native.a(uip-nd6.o)
                0x0000000000012970                uip_nd6_init
 .text          0x0000000000012980      0x2a2 build/native/contiki-ng-native.a(simple-udp.o)
                0x0000000000012a90                simple_udp_send
                0x0000000000012ad0                simple_udp_sendto
                0x0000000000012b10                simple_udp_sendto_port
                0x0000000000012b50                simple_udp_register
 *fill*         0x0000000000012c22        0xe 
 .text          0x0000000000012c30     0x230b build/native/contiki-ng-native.a(sicslowpan.o)
                0x0000000000012c30                sicslowpan_init
                0x0000000000014f10                netstack_sniffer_add
                0x0000000000014f20                netstack_sniffer_remove
                0x0000000000014f30                sicslowpan_get_last_rssi
 *fill*         0x0000000000014f3b        0x5 
 .text          0x0000000000014f40      0x51f build/native/contiki-ng-native.a(uiplib.o)
                0x0000000000014f40                uiplib_ip6addrconv
                0x0000000000015140                uiplib_ip4addrconv
                0x00000000000151e0                uiplib_ipaddr_snprint
                0x0000000000015400                uiplib_ipaddr_print
 *fill*         0x000000000001545f        0x1 
 .text          0x0000000000015460      0x49c build/native/contiki-ng-native.a(rpl.o)
                0x0000000000015460                rpl_has_joined
                0x0000000000015480                rpl_is_reachable
                0x00000000000154b0                rpl_get_leaf_only
                0x00000000000155f0                rpl_link_callback
                0x0000000000015650                rpl_lollipop_greater_than
                0x00000000000156a0                rpl_get_global_address
                0x0000000000015770                rpl_reset_prefix
                0x00000000000157d0                rpl_set_prefix_from_addr
                0x00000000000158b0                rpl_set_prefix
                0x00000000000158f0                rpl_set_leaf_only
 *fill*         0x00000000000158fc        0x4 
 .text          0x0000000000015900     0x119b build/native/contiki-ng-native.a(rpl-icmp6.o)
                0x0000000000015900                resend_pdao
                0x0000000000016150                rpl_icmp6_update_nbr_table
                0x00000000000161a0                rpl_icmp6_dis_output
                0x00000000000161f0                rpl_icmp6_dio_output
                0x0000000000016610                rpl_icmp6_pdao_ack_output
                0x00000000000166d0                push
                0x0000000000016710                rpl_icmp6_pdr_output
                0x0000000000016780                rpl_icmp6_pdao_output
                0x0000000000016820                pdao_set
                0x0000000000016830                pdao_check
                0x0000000000016850                rpl_icmp6_dao_output
                0x00000000000169d0                rpl_icmp6_dao_ack_output
                0x0000000000016a30                rpl_icmp6_init
 *fill*         0x0000000000016a9b        0x5 
 .text          0x0000000000016aa0      0x224 build/native/contiki-ng-native.a(rpl-dag-root.o)
                0x0000000000016b20                rpl_dag_root_print_links
                0x0000000000016bc0                rpl_dag_root_set_prefix
                0x0000000000016bf0                rpl_dag_root_start
                0x0000000000016ca0                rpl_dag_root_is_root
 *fill*         0x0000000000016cc4        0xc 
 .text          0x0000000000016cd0      0x65d build/native/contiki-ng-native.a(tun-bridge.o)
                0x0000000000016ce0                sigcleanup
                0x0000000000016da0                ssystem
                0x0000000000016ec0                cleanup
                0x0000000000016f00                ifconf
                0x0000000000016f50                devopen
                0x0000000000016fc0                tun_alloc
                0x00000000000170b0                tun_init
                0x0000000000017190                tun_input
 *fill*         0x000000000001732d        0x3 
 .text          0x0000000000017330      0xd8d build/native/contiki-ng-native.a(slip-dev.o)
                0x0000000000017450                is_sensible_string
                0x00000000000174a0                slip_packet_input
                0x00000000000174e0                serial_input
                0x0000000000017900                slip_empty
                0x0000000000017920                slip_flushbuf
                0x0000000000017b00                write_to_slip
                0x0000000000017c20                slip_init
 *fill*         0x00000000000180bd        0x3 
 .text          0x00000000000180c0      0x560 build/native/contiki-ng-native.a(slip-config.o)
                0x00000000000180c0                slip_config_handle_arguments
 .text          0x0000000000018620      0x25a build/native/contiki-ng-native.a(border-router-m)
                0x0000000000018800                init_sec
                0x0000000000018810                packet_sent
 *fill*         0x000000000001887a        0x6 
 .text          0x0000000000018880      0x5a1 build/native/contiki-ng-native.a(border-router-c)
                0x0000000000018ab0                border_router_cmd_handler
                0x0000000000018dd0                border_router_cmd_output
 *fill*         0x0000000000018e21        0xf 
 .text          0x0000000000018e30       0x69 build/native/contiki-ng-native.a(cmd.o)
                0x0000000000018e30                cmd_input
                0x0000000000018e90                cmd_send
 *fill*         0x0000000000018e99        0x7 
 .text          0x0000000000018ea0      0x108 build/native/contiki-ng-native.a(packetutils.o)
                0x0000000000018ea0                packetutils_serialize_atts
                0x0000000000018f30                packetutils_deserialize_atts
 *fill*         0x0000000000018fa8        0x8 
 .text          0x0000000000018fb0      0x349 build/native/contiki-ng-native.a(shell.o)
                0x0000000000018fb0                shell_output_6addr
                0x0000000000019030                shell_output_lladdr
                0x0000000000019160                shell_input
                0x00000000000192f0                shell_init
 *fill*         0x00000000000192f9        0x7 
 .text          0x0000000000019300     0x19c3 build/native/contiki-ng-native.a(shell-commands.)
                0x000000000001aba0                shell_commands_init
                0x000000000001abe0                shell_command_set_register
                0x000000000001ac00                shell_command_set_deregister
                0x000000000001ac50                shell_command_lookup
 *fill*         0x000000000001acc3        0xd 
 .text          0x000000000001acd0       0xd2 build/native/contiki-ng-native.a(serial-shell.o)
                0x000000000001ad90                serial_shell_init
 *fill*         0x000000000001ada2        0xe 
 .text          0x000000000001adb0      0x4b1 build/native/contiki-ng-native.a(platform.o)
                0x000000000001ae20                select_set_callback
                0x000000000001aec0                native_uart_set_input
                0x000000000001aed0                platform_process_args
                0x000000000001aef0                platform_init_stage_one
                0x000000000001af10                platform_init_stage_two
                0x000000000001af80                platform_init_stage_three
                0x000000000001b090                platform_main_loop
                0x000000000001b210                log_message
                0x000000000001b240                uip_log
 *fill*         0x000000000001b261        0xf 
 .text          0x000000000001b270       0xd5 build/native/contiki-ng-native.a(clock.o)
                0x000000000001b270                clock_time
                0x000000000001b2e0                clock_seconds
                0x000000000001b330                clock_delay
                0x000000000001b340                clock_init
 *fill*         0x000000000001b345        0xb 
 .text          0x000000000001b350       0xc4 build/native/contiki-ng-native.a(rtimer-arch.o)
                0x000000000001b370                rtimer_arch_init
                0x000000000001b390                rtimer_arch_schedule
 *fill*         0x000000000001b414        0xc 
 .text          0x000000000001b420       0x54 build/native/contiki-ng-native.a(watchdog.o)
                0x000000000001b420                watchdog_init
                0x000000000001b430                watchdog_start
                0x000000000001b440                watchdog_periodic
                0x000000000001b450                watchdog_stop
                0x000000000001b460                watchdog_reboot
 *fill*         0x000000000001b474        0xc 
 .text          0x000000000001b480      0x552 build/native/contiki-ng-native.a(httpd-simple.o)
                0x000000000001b830                httpd_appcall
                0x000000000001b9b0                httpd_init
 *fill*         0x000000000001b9d2        0xe 
 .text          0x000000000001b9e0       0xf2 build/native/contiki-ng-native.a(rpl-border-rout)
                0x000000000001b9e0                print_local_addresses
                0x000000000001ba90                set_prefix_64
                0x000000000001bac0                rpl_border_router_init
 *fill*         0x000000000001bad2        0xe 
 .text          0x000000000001bae0       0xd2 build/native/contiki-ng-native.a(stimer.o)
                0x000000000001bae0                stimer_set
                0x000000000001bb00                stimer_reset
                0x000000000001bb30                stimer_restart
                0x000000000001bb50                stimer_expired
                0x000000000001bb80                stimer_remaining
                0x000000000001bba0                stimer_elapsed
 *fill*         0x000000000001bbb2        0xe 
 .text          0x000000000001bbc0      0x147 build/native/contiki-ng-native.a(memb.o)
                0x000000000001bbc0                memb_init
                0x000000000001bbf0                memb_alloc
                0x000000000001bc40                memb_free
                0x000000000001bc90                memb_inmemb
                0x000000000001bcc0                memb_numfree
 *fill*         0x000000000001bd07        0x9 
 .text          0x000000000001bd10       0x22 build/native/contiki-ng-native.a(random.o)
                0x000000000001bd10                random_init
                0x000000000001bd20                random_rand
 *fill*         0x000000000001bd32        0xe 
 .text          0x000000000001bd40      0x378 build/native/contiki-ng-native.a(button-hal.o)
                0x000000000001be90                button_hal_get_by_id
                0x000000000001bed0                button_hal_get_by_index
                0x000000000001bf00                button_hal_get_state
                0x000000000001bfe0                button_hal_init
 *fill*         0x000000000001c0b8        0x8 
 .text          0x000000000001c0c0      0x1e2 build/native/contiki-ng-native.a(serial-line.o)
                0x000000000001c1f0                serial_line_input_byte
                0x000000000001c270                serial_line_init
 *fill*         0x000000000001c2a2        0xe 
 .text          0x000000000001c2b0       0x87 build/native/contiki-ng-native.a(leds.o)
                0x000000000001c2b0                leds_init
                0x000000000001c2c0                leds_single_on
                0x000000000001c2d0                leds_single_off
                0x000000000001c2e0                leds_single_toggle
                0x000000000001c2f0                leds_on
                0x000000000001c300                leds_off
                0x000000000001c310                leds_toggle
                0x000000000001c320                leds_set
                0x000000000001c330                leds_get
 *fill*         0x000000000001c337        0x9 
 .text          0x000000000001c340       0xf7 build/native/contiki-ng-native.a(nullradio.o)
 *fill*         0x000000000001c437        0x9 
 .text          0x000000000001c440      0x118 build/native/contiki-ng-native.a(gpio-hal.o)
                0x000000000001c440                gpio_hal_register_handler
                0x000000000001c460                gpio_hal_event_handler
                0x000000000001c4b0                gpio_hal_init
                0x000000000001c4d0                gpio_hal_arch_port_toggle_pin
                0x000000000001c4f0                gpio_hal_arch_port_toggle_pins
                0x000000000001c510                gpio_hal_arch_no_port_toggle_pin
                0x000000000001c540                gpio_hal_arch_no_port_toggle_pins
 *fill*         0x000000000001c558        0x8 
 .text          0x000000000001c560      0x70b build/native/contiki-ng-native.a(nbr-table.o)
                0x000000000001c5e0                nbr_table_register
                0x000000000001c650                nbr_table_is_registered
                0x000000000001c680                nbr_table_next
                0x000000000001c730                nbr_table_head
                0x000000000001c7a0                nbr_table_add_lladdr
                0x000000000001cab0                nbr_table_get_from_lladdr
                0x000000000001cb10                nbr_table_remove
                0x000000000001cb90                nbr_table_lock
                0x000000000001cbe0                nbr_table_unlock
                0x000000000001cc30                nbr_table_get_lladdr
 *fill*         0x000000000001cc6b        0x5 
 .text          0x000000000001cc70      0x3e4 build/native/contiki-ng-native.a(link-stats.o)
                0x000000000001ccc0                link_stats_from_lladdr
                0x000000000001cce0                link_stats_get_lladdr
                0x000000000001cd00                link_stats_is_fresh
                0x000000000001cd40                guess_etx_from_rssi
                0x000000000001cda0                link_stats_packet_sent
                0x000000000001cf00                link_stats_input_callback
                0x000000000001cfd0                link_stats_reset
                0x000000000001d020                link_stats_init
 *fill*         0x000000000001d054        0xc 
 .text          0x000000000001d060       0x19 build/native/contiki-ng-native.a(mac.o)
                0x000000000001d060                mac_call_sent_callback
 *fill*         0x000000000001d079        0x7 
 .text          0x000000000001d080      0x3e1 build/native/contiki-ng-native.a(framer-802154.o)
                0x000000000001d440                framer_802154_setup_params
 *fill*         0x000000000001d461        0xf 
 .text          0x000000000001d470      0x98e build/native/contiki-ng-native.a(frame802154.o)
                0x000000000001d470                frame802154_get_pan_id
                0x000000000001d480                frame802154_set_pan_id
                0x000000000001d490                frame802154_has_panid
                0x000000000001d6f0                frame802154_check_dest_panid
                0x000000000001d770                frame802154_is_broadcast_addr
                0x000000000001d7c0                frame802154_extract_linkaddr
                0x000000000001d900                frame802154_hdrlen
                0x000000000001d970                frame802154_create_fcf
                0x000000000001d9f0                frame802154_create
                0x000000000001db20                frame802154_parse_fcf
                0x000000000001db90                frame802154_parse
 *fill*         0x000000000001ddfe        0x2 
 .text          0x000000000001de00      0x3c6 build/native/contiki-ng-native.a(uipbuf.o)
                0x000000000001de00                uipbuf_clear
                0x000000000001de40                uipbuf_add_ext_hdr
                0x000000000001de90                uipbuf_set_len
                0x000000000001deb0                uipbuf_set_len_field
                0x000000000001dec0                uipbuf_get_len_field
                0x000000000001dee0                uipbuf_get_next_header
                0x000000000001dfa0                uipbuf_get_last_header
                0x000000000001e010                uipbuf_search_header
                0x000000000001e0c0                uipbuf_get_attr
                0x000000000001e0e0                uipbuf_set_attr
                0x000000000001e110                uipbuf_set_default_attr
                0x000000000001e140                uipbuf_clear_attr
                0x000000000001e160                uipbuf_set_attr_flag
                0x000000000001e170                uipbuf_clr_attr_flag
                0x000000000001e180                uipbuf_is_attr_flag
                0x000000000001e1a0                uipbuf_init
 *fill*         0x000000000001e1c6        0xa 
 .text          0x000000000001e1d0      0x4f2 build/native/contiki-ng-native.a(uip-icmp6.o)
                0x000000000001e320                uip_icmp6_input
                0x000000000001e390                uip_icmp6_register_input_handler
                0x000000000001e3b0                uip_icmp6_error_output
                0x000000000001e580                uip_icmp6_send
                0x000000000001e640                uip_icmp6_echo_reply_callback_add
                0x000000000001e670                uip_icmp6_echo_reply_callback_rm
                0x000000000001e690                uip_icmp6_init
 *fill*         0x000000000001e6c2        0xe 
 .text          0x000000000001e6d0      0x124 build/native/contiki-ng-native.a(uip-packetqueue)
                0x000000000001e6f0                uip_packetqueue_new
                0x000000000001e700                uip_packetqueue_alloc
                0x000000000001e760                uip_packetqueue_free
                0x000000000001e7a0                uip_packetqueue_buf
                0x000000000001e7c0                uip_packetqueue_buflen
                0x000000000001e7e0                uip_packetqueue_set_buflen
 *fill*         0x000000000001e7f4        0xc 
 .text          0x000000000001e800       0xd7 build/native/contiki-ng-native.a(uip-udp-packet.)
                0x000000000001e800                uip_udp_packet_send
                0x000000000001e870                uip_udp_packet_sendto
 *fill*         0x000000000001e8d7        0x9 
 .text          0x000000000001e8e0      0x12d build/native/contiki-ng-native.a(rpl-nbr-policy.)
                0x000000000001e980                rpl_nbr_policy_find_removable
 *fill*         0x000000000001ea0d        0x3 
 .text          0x000000000001ea10      0x937 build/native/contiki-ng-native.a(rpl-neighbor.o)
                0x000000000001ea70                rpl_neighbor_count
                0x000000000001ead0                rpl_neighbor_get_from_lladdr
                0x000000000001eaf0                rpl_neighbor_is_acceptable_parent
                0x000000000001eb20                rpl_neighbor_get_link_metric
                0x000000000001eb50                rpl_neighbor_rank_via_nbr
                0x000000000001eb80                rpl_neighbor_get_lladdr
                0x000000000001eba0                rpl_neighbor_get_ipaddr
                0x000000000001ebd0                rpl_neighbor_get_link_stats
                0x000000000001ed00                rpl_neighbor_snprint
                0x000000000001f050                rpl_neighbor_print_list
                0x000000000001f0f0                rpl_neighbor_is_fresh
                0x000000000001f110                rpl_neighbor_is_reachable
                0x000000000001f170                rpl_neighbor_is_parent
                0x000000000001f190                rpl_neighbor_set_preferred_parent
                0x000000000001f210                rpl_neighbor_remove_all
                0x000000000001f260                rpl_neighbor_get_from_ipaddr
                0x000000000001f290                rpl_neighbor_select_best
                0x000000000001f330                rpl_neighbor_init
 *fill*         0x000000000001f347        0x9 
 .text          0x000000000001f350      0xca9 build/native/contiki-ng-native.a(rpl-dag.o)
                0x000000000001f750                rpl_dag_state_to_str
                0x000000000001f7a0                rpl_dag_get_root_ipaddr
                0x000000000001f7d0                rpl_dag_leave
                0x000000000001f850                rpl_dag_poison_and_leave
                0x000000000001f870                rpl_dag_periodic
                0x000000000001f8f0                rpl_is_addr_in_our_dag
                0x000000000001f940                rpl_get_default_instance
                0x000000000001f960                rpl_get_any_dag
                0x000000000001f980                rpl_refresh_routes
                0x000000000001f9b0                rpl_global_repair
                0x000000000001f9e0                rpl_local_repair
                0x000000000001fa00                rpl_dag_ready_to_advertise
                0x000000000001fa40                rpl_dag_update_state
                0x000000000001fa60                rpl_process_dio
                0x000000000001fd00                rpl_process_dis
                0x000000000001fd50                rpl_process_dao
                0x000000000001fdd0                rpl_process_dao_ack
                0x000000000001fe70                rpl_process_hbh
                0x000000000001fec0                rpl_dag_init_root
                0x000000000001ffe0                rpl_dag_init
 *fill*         0x000000000001fff9        0x7 
 .text          0x0000000000020000      0x967 build/native/contiki-ng-native.a(rpl-timers.o)
                0x00000000000202c0                rpl_timers_schedule_periodic_dis
                0x00000000000203f0                rpl_timers_dio_reset
                0x0000000000020450                rpl_timers_schedule_unicast_dio
                0x0000000000020480                rpl_timers_schedule_dao
                0x00000000000204f0                rpl_timers_schedule_dao_ack
                0x0000000000020530                rpl_timers_notify_dao_ack
                0x00000000000205b0                get_probing_delay
                0x00000000000205d0                get_probing_target
                0x0000000000020790                rpl_schedule_probing
                0x00000000000207b0                rpl_schedule_probing_now
                0x0000000000020800                rpl_timers_unschedule_leaving
                0x0000000000020840                rpl_timers_schedule_leaving
                0x0000000000020890                rpl_timers_init
                0x00000000000208c0                rpl_timers_stop_dag_timers
                0x0000000000020920                rpl_timers_unschedule_state_update
                0x0000000000020940                rpl_timers_schedule_state_update
 *fill*         0x0000000000020967        0x9 
 .text          0x0000000000020970      0xb74 build/native/contiki-ng-native.a(rpl-ext-header.)
                0x00000000000209e0                rpl_ext_header_srh_get_next_hop
                0x0000000000020ac0                rpl_ext_header_srh_update
                0x0000000000020d30                rpl_ext_header_hbh_update
                0x0000000000020df0                rpl_ext_header_remove
                0x0000000000020f70                rpl_ext_header_update
 *fill*         0x00000000000214e4        0xc 
 .text          0x00000000000214f0      0x2b5 build/native/contiki-ng-native.a(rpl-mrhof.o)
 *fill*         0x00000000000217a5        0xb 
 .text          0x00000000000217b0      0x2f0 build/native/contiki-ng-native.a(border-router-n)
                0x0000000000021a10                border_router_set_mac
                0x0000000000021a60                border_router_print_stat
 .text          0x0000000000021aa0        0x0 build/native/contiki-ng-native.a(buttons.o)
 .text          0x0000000000021aa0       0x50 build/native/contiki-ng-native.a(int-master.o)
                0x0000000000021aa0                int_master_enable
                0x0000000000021ab0                int_master_read_and_disable
                0x0000000000021ad0                int_master_status_set
                0x0000000000021ae0                int_master_is_enabled
 .text          0x0000000000021af0      0x1d2 build/native/contiki-ng-native.a(gpio-hal-arch.o)
                0x0000000000021af0                gpio_hal_arch_init
                0x0000000000021b00                gpio_hal_arch_no_port_interrupt_enable
                0x0000000000021b10                gpio_hal_arch_no_port_interrupt_disable
                0x0000000000021b20                gpio_hal_arch_no_port_pin_cfg_set
                0x0000000000021b40                gpio_hal_arch_no_port_pin_cfg_get
                0x0000000000021b60                gpio_hal_arch_no_port_pin_set_input
                0x0000000000021b70                gpio_hal_arch_no_port_pin_set_output
                0x0000000000021b80                gpio_hal_arch_no_port_set_pin
                0x0000000000021ba0                gpio_hal_arch_no_port_clear_pin
                0x0000000000021bc0                gpio_hal_arch_no_port_read_pin
                0x0000000000021be0                gpio_hal_arch_no_port_write_pin
                0x0000000000021c00                gpio_hal_arch_no_port_set_pins
                0x0000000000021c30                gpio_hal_arch_no_port_clear_pins
                0x0000000000021c60                gpio_hal_arch_no_port_read_pins
                0x0000000000021c90                gpio_hal_arch_no_port_write_pins
 *fill*         0x0000000000021cc2        0xe 
 .text          0x0000000000021cd0       0xc5 build/native/contiki-ng-native.a(ringbuf.o)
                0x0000000000021cd0                ringbuf_init
                0x0000000000021cf0                ringbuf_put
                0x0000000000021d30                ringbuf_get
                0x0000000000021d70                ringbuf_size
                0x0000000000021d80                ringbuf_elements
 *fill*         0x0000000000021d95        0xb 
 .text          0x0000000000021da0       0x75 /usr/lib/x86_64-linux-gnu/libc_nonshared.a(elf-init.oS)
                0x0000000000021da0                __libc_csu_init
                0x0000000000021e10                __libc_csu_fini
 *fill*         0x0000000000021e15        0xb 
 .text          0x0000000000021e20       0x12 /usr/lib/x86_64-linux-gnu/libc_nonshared.a(atexit.oS)
                0x0000000000021e20                atexit
 .text          0x0000000000021e32        0x0 /usr/lib/gcc/x86_64-linux-gnu/9/crtendS.o
 .text          0x0000000000021e32        0x0 /usr/lib/gcc/x86_64-linux-gnu/9/../../../x86_64-linux-gnu/crtn.o
 *(.gnu.warning)

.fini           0x0000000000021e34        0xd
 *(SORT_NONE(.fini))
 .fini          0x0000000000021e34        0x8 /usr/lib/gcc/x86_64-linux-gnu/9/../../../x86_64-linux-gnu/crti.o
                0x0000000000021e34                _fini
 .fini          0x0000000000021e3c        0x5 /usr/lib/gcc/x86_64-linux-gnu/9/../../../x86_64-linux-gnu/crtn.o
                [!provide]                        PROVIDE (__etext = .)
                [!provide]                        PROVIDE (_etext = .)
                [!provide]                        PROVIDE (etext = .)
                0x0000000000022000                . = ALIGN (CONSTANT (MAXPAGESIZE))
                0x0000000000022000                . = SEGMENT_START ("rodata-segment", (ALIGN (CONSTANT (MAXPAGESIZE)) + (. & (CONSTANT (MAXPAGESIZE) - 0x1))))

.rodata         0x0000000000022000     0x1a40
 *(.rodata .rodata.* .gnu.linkonce.r.*)
 .rodata.cst4   0x0000000000022000        0x4 /usr/lib/gcc/x86_64-linux-gnu/9/../../../x86_64-linux-gnu/Scrt1.o
                0x0000000000022000                _IO_stdin_used
 .rodata.str1.1
                0x0000000000022004       0x34 border-router.o
 .rodata.str1.8
                0x0000000000022038       0x21 border-router.o
 .rodata.str1.1
                0x0000000000022059       0xc5 build/native/contiki-ng-native.a(webserver.o)
                                         0xcc (size before relaxing)
 .rodata.str1.1
                0x000000000002211e       0x66 build/native/contiki-ng-native.a(contiki-main.o)
                                         0x7a (size before relaxing)
 *fill*         0x0000000000022184        0x4 
 .rodata.str1.8
                0x0000000000022188       0x7c build/native/contiki-ng-native.a(contiki-main.o)
 .rodata.str1.1
                0x0000000000022204        0xf build/native/contiki-ng-native.a(ctimer.o)
 .rodata.str1.1
                0x0000000000022213       0xa0 build/native/contiki-ng-native.a(log.o)
                                         0xac (size before relaxing)
 *fill*         0x00000000000222b3        0x1 
 .rodata        0x00000000000222b4       0x14 build/native/contiki-ng-native.a(log.o)
 .rodata.str1.1
                0x00000000000222c8        0xc build/native/contiki-ng-native.a(etimer.o)
 *fill*         0x00000000000222d4        0x4 
 .rodata        0x00000000000222d8        0x8 build/native/contiki-ng-native.a(linkaddr.o)
                0x00000000000222d8                linkaddr_null
 .rodata.str1.1
                0x00000000000222e0       0x44 build/native/contiki-ng-native.a(uip-sr.o)
 .rodata.str1.1
                0x0000000000022324        0xd build/native/contiki-ng-native.a(tcpip.o)
 *fill*         0x0000000000022331        0x3 
 .rodata        0x0000000000022334       0x84 build/native/contiki-ng-native.a(uip6.o)
 .rodata.str1.1
                0x00000000000223b8       0x13 build/native/contiki-ng-native.a(simple-udp.o)
 .rodata        0x00000000000223cb       0x16 build/native/contiki-ng-native.a(sicslowpan.o)
                0x00000000000223d3                llprefix
                0x00000000000223d5                unc_mxconf
                0x00000000000223d9                unc_ctxconf
                0x00000000000223dd                unc_llconf
 .rodata.str1.1
                0x00000000000223e1        0xb build/native/contiki-ng-native.a(sicslowpan.o)
 .rodata.str1.1
                0x00000000000223ec       0x25 build/native/contiki-ng-native.a(uiplib.o)
                                         0x2d (size before relaxing)
 .rodata.str1.1
                0x0000000000022411        0x9 build/native/contiki-ng-native.a(rpl.o)
 .rodata.str1.1
                0x000000000002241a       0x55 build/native/contiki-ng-native.a(rpl-icmp6.o)
                                         0x63 (size before relaxing)
 .rodata.str1.1
                0x000000000002246f       0x9b build/native/contiki-ng-native.a(tun-bridge.o)
                                         0x9f (size before relaxing)
 *fill*         0x000000000002250a        0x6 
 .rodata.str1.8
                0x0000000000022510       0x6f build/native/contiki-ng-native.a(tun-bridge.o)
 .rodata.str1.1
                0x000000000002257f      0x135 build/native/contiki-ng-native.a(slip-dev.o)
                                        0x137 (size before relaxing)
 *fill*         0x00000000000226b4        0x4 
 .rodata.str1.8
                0x00000000000226b8       0xd5 build/native/contiki-ng-native.a(slip-dev.o)
 .rodata.str1.1
                0x000000000002278d       0x5d build/native/contiki-ng-native.a(slip-config.o)
 *fill*         0x00000000000227ea        0x6 
 .rodata.str1.8
                0x00000000000227f0      0x4de build/native/contiki-ng-native.a(slip-config.o)
 *fill*         0x0000000000022cce        0x2 
 .rodata        0x0000000000022cd0       0xd4 build/native/contiki-ng-native.a(slip-config.o)
 .rodata.str1.1
                0x0000000000022da4        0x7 build/native/contiki-ng-native.a(border-router-m)
 .rodata.str1.1
                0x0000000000022dab       0x7d build/native/contiki-ng-native.a(border-router-c)
                                         0x80 (size before relaxing)
 .rodata.str1.1
                0x0000000000022e28        0x8 build/native/contiki-ng-native.a(shell.o)
 *fill*         0x0000000000022e28        0x8 
 .rodata.cst16  0x0000000000022e30       0x30 build/native/contiki-ng-native.a(shell.o)
 .rodata.str1.1
                0x0000000000022e60      0x2c0 build/native/contiki-ng-native.a(shell-commands.)
                                        0x2d4 (size before relaxing)
 .rodata.str1.8
                0x0000000000023120      0x3e4 build/native/contiki-ng-native.a(shell-commands.)
 .rodata        0x0000000000023504       0x14 build/native/contiki-ng-native.a(shell-commands.)
 *fill*         0x0000000000023518        0x8 
 .rodata.cst16  0x0000000000023520      0x180 build/native/contiki-ng-native.a(shell-commands.)
 .rodata.str1.1
                0x00000000000236a0       0x15 build/native/contiki-ng-native.a(serial-shell.o)
                                         0x18 (size before relaxing)
 .rodata.str1.1
                0x00000000000236b5       0x2f build/native/contiki-ng-native.a(platform.o)
                                         0x47 (size before relaxing)
 *fill*         0x00000000000236e4        0x4 
 .rodata.str1.8
                0x00000000000236e8       0x59 build/native/contiki-ng-native.a(httpd-simple.o)
 *fill*         0x0000000000023741       0x1f 
 .rodata        0x0000000000023760       0xfc build/native/contiki-ng-native.a(httpd-simple.o)
                0x0000000000023760                http_index_html
                0x000000000002376c                http_get
                0x0000000000023780                http_header_404
                0x00000000000237e0                http_header_200
                0x0000000000023840                http_content_type_html
 .rodata.str1.1
                0x000000000002385c       0x1a build/native/contiki-ng-native.a(rpl-border-rout)
                                         0x31 (size before relaxing)
 .rodata.str1.1
                0x0000000000023876       0x13 build/native/contiki-ng-native.a(button-hal.o)
 .rodata.str1.1
                0x0000000000023889        0xe build/native/contiki-ng-native.a(serial-line.o)
 *fill*         0x0000000000023897        0x1 
 .rodata.str1.8
                0x0000000000023898       0x22 build/native/contiki-ng-native.a(rpl-neighbor.o)
 .rodata.str1.1
                0x00000000000238ba       0x3d build/native/contiki-ng-native.a(rpl-neighbor.o)
                                         0x3f (size before relaxing)
 .rodata.str1.1
                0x00000000000238f7       0xa6 build/native/contiki-ng-native.a(rpl-dag.o)
                                         0xb0 (size before relaxing)
 .rodata.str1.1
                0x000000000002399d        0xc build/native/contiki-ng-native.a(rpl-timers.o)
 .rodata.str1.1
                0x00000000000239a9       0x73 build/native/contiki-ng-native.a(border-router-n)
                                         0x8a (size before relaxing)
 *fill*         0x0000000000023a1c        0x4 
 .rodata.str1.8
                0x0000000000023a20       0x1f build/native/contiki-ng-native.a(border-router-n)
 .rodata        0x0000000000023a3f        0x1 build/native/contiki-ng-native.a(buttons.o)
                0x0000000000023a3f                button_hal_button_count

.rodata1
 *(.rodata1)

.eh_frame_hdr   0x0000000000023a40     0x1444
 *(.eh_frame_hdr)
 .eh_frame_hdr  0x0000000000023a40     0x1444 /usr/lib/gcc/x86_64-linux-gnu/9/../../../x86_64-linux-gnu/Scrt1.o
                0x0000000000023a40                __GNU_EH_FRAME_HDR
 *(.eh_frame_entry .eh_frame_entry.*)

.eh_frame       0x0000000000024e88     0x5350
 *(.eh_frame)
 .eh_frame      0x0000000000024e88       0x30 /usr/lib/gcc/x86_64-linux-gnu/9/../../../x86_64-linux-gnu/Scrt1.o
                                         0x2c (size before relaxing)
 *fill*         0x0000000000024eb8        0x0 
 .eh_frame      0x0000000000024eb8       0x28 /usr/lib/gcc/x86_64-linux-gnu/9/../../../x86_64-linux-gnu/Scrt1.o
                                         0x40 (size before relaxing)
 .eh_frame      0x0000000000024ee0       0x18 /usr/lib/gcc/x86_64-linux-gnu/9/../../../x86_64-linux-gnu/Scrt1.o
                                         0x30 (size before relaxing)
 .eh_frame      0x0000000000024ef8       0x18 /usr/lib/gcc/x86_64-linux-gnu/9/../../../x86_64-linux-gnu/Scrt1.o
                                         0x30 (size before relaxing)
 .eh_frame      0x0000000000024f10       0x20 border-router.o
                                         0x38 (size before relaxing)
 .eh_frame      0x0000000000024f30      0x118 build/native/contiki-ng-native.a(webserver.o)
                                        0x130 (size before relaxing)
 .eh_frame      0x0000000000025048       0x20 build/native/contiki-ng-native.a(contiki-main.o)
                                         0x38 (size before relaxing)
 .eh_frame      0x0000000000025068       0x38 build/native/contiki-ng-native.a(autostart.o)
                                         0x50 (size before relaxing)
 .eh_frame      0x00000000000250a0      0x130 build/native/contiki-ng-native.a(ctimer.o)
                                        0x148 (size before relaxing)
 .eh_frame      0x00000000000251d0      0x158 build/native/contiki-ng-native.a(log.o)
                                        0x170 (size before relaxing)
 .eh_frame      0x0000000000025328       0x40 build/native/contiki-ng-native.a(energest.o)
                                         0x58 (size before relaxing)
 .eh_frame      0x0000000000025368      0x1b0 build/native/contiki-ng-native.a(etimer.o)
                                        0x1c8 (size before relaxing)
 .eh_frame      0x0000000000025518       0x18 build/native/contiki-ng-native.a(node-id.o)
                                         0x30 (size before relaxing)
 .eh_frame      0x0000000000025530       0x50 build/native/contiki-ng-native.a(rtimer.o)
                                         0x68 (size before relaxing)
 .eh_frame      0x0000000000025580      0x198 build/native/contiki-ng-native.a(process.o)
                                        0x1b0 (size before relaxing)
 .eh_frame      0x0000000000025718       0x90 build/native/contiki-ng-native.a(timer.o)
                                         0xa8 (size before relaxing)
 .eh_frame      0x00000000000257a8      0x108 build/native/contiki-ng-native.a(list.o)
                                        0x120 (size before relaxing)
 .eh_frame      0x00000000000258b0      0x138 build/native/contiki-ng-native.a(queuebuf.o)
                                        0x150 (size before relaxing)
 .eh_frame      0x00000000000259e8      0x1c0 build/native/contiki-ng-native.a(packetbuf.o)
                                        0x1d8 (size before relaxing)
 .eh_frame      0x0000000000025ba8       0x78 build/native/contiki-ng-native.a(netstack.o)
                                         0x90 (size before relaxing)
 .eh_frame      0x0000000000025c20       0x40 build/native/contiki-ng-native.a(linkaddr.o)
                                         0x58 (size before relaxing)
 .eh_frame      0x0000000000025c60      0x210 build/native/contiki-ng-native.a(uip-sr.o)
                                        0x228 (size before relaxing)
 .eh_frame      0x0000000000025e70      0x3c0 build/native/contiki-ng-native.a(uip-ds6.o)
                                        0x3d8 (size before relaxing)
 .eh_frame      0x0000000000026230      0x1c0 build/native/contiki-ng-native.a(uip-ds6-route.o)
                                        0x1d8 (size before relaxing)
 .eh_frame      0x00000000000263f0       0xe0 build/native/contiki-ng-native.a(psock.o)
                                         0xf8 (size before relaxing)
 .eh_frame      0x00000000000264d0      0x210 build/native/contiki-ng-native.a(tcpip.o)
                                        0x228 (size before relaxing)
 .eh_frame      0x00000000000266e0      0x230 build/native/contiki-ng-native.a(uip6.o)
                                        0x248 (size before relaxing)
 .eh_frame      0x0000000000026910      0x1c0 build/native/contiki-ng-native.a(uip-ds6-nbr.o)
                                        0x1d8 (size before relaxing)
 .eh_frame      0x0000000000026ad0       0x48 build/native/contiki-ng-native.a(uip-nd6.o)
                                         0x60 (size before relaxing)
 .eh_frame      0x0000000000026b18       0xf0 build/native/contiki-ng-native.a(simple-udp.o)
                                        0x108 (size before relaxing)
 .eh_frame      0x0000000000026c08      0x288 build/native/contiki-ng-native.a(sicslowpan.o)
                                        0x2a0 (size before relaxing)
 .eh_frame      0x0000000000026e90       0xc8 build/native/contiki-ng-native.a(uiplib.o)
                                         0xe0 (size before relaxing)
 .eh_frame      0x0000000000026f58      0x1b0 build/native/contiki-ng-native.a(rpl.o)
                                        0x1c8 (size before relaxing)
 .eh_frame      0x0000000000027108      0x320 build/native/contiki-ng-native.a(rpl-icmp6.o)
                                        0x338 (size before relaxing)
 .eh_frame      0x0000000000027428       0xa8 build/native/contiki-ng-native.a(rpl-dag-root.o)
                                         0xc0 (size before relaxing)
 .eh_frame      0x00000000000274d0      0x198 build/native/contiki-ng-native.a(tun-bridge.o)
                                        0x1b0 (size before relaxing)
 .eh_frame      0x0000000000027668      0x1d0 build/native/contiki-ng-native.a(slip-dev.o)
                                        0x1e8 (size before relaxing)
 .eh_frame      0x0000000000027838       0x50 build/native/contiki-ng-native.a(slip-config.o)
                                         0x68 (size before relaxing)
 .eh_frame      0x0000000000027888      0x108 build/native/contiki-ng-native.a(border-router-m)
                                        0x120 (size before relaxing)
 .eh_frame      0x0000000000027990       0xc0 build/native/contiki-ng-native.a(border-router-c)
                                         0xd8 (size before relaxing)
 .eh_frame      0x0000000000027a50       0x50 build/native/contiki-ng-native.a(cmd.o)
                                         0x68 (size before relaxing)
 .eh_frame      0x0000000000027aa0       0x80 build/native/contiki-ng-native.a(packetutils.o)
                                         0x98 (size before relaxing)
 .eh_frame      0x0000000000027b20       0xc8 build/native/contiki-ng-native.a(shell.o)
                                         0xe0 (size before relaxing)
 .eh_frame      0x0000000000027be8      0x460 build/native/contiki-ng-native.a(shell-commands.)
                                        0x478 (size before relaxing)
 .eh_frame      0x0000000000028048       0x50 build/native/contiki-ng-native.a(serial-shell.o)
                                         0x68 (size before relaxing)
 .eh_frame      0x0000000000028098      0x128 build/native/contiki-ng-native.a(platform.o)
                                        0x140 (size before relaxing)
 .eh_frame      0x00000000000281c0       0x60 build/native/contiki-ng-native.a(clock.o)
                                         0x78 (size before relaxing)
 .eh_frame      0x0000000000028220       0x50 build/native/contiki-ng-native.a(rtimer-arch.o)
                                         0x68 (size before relaxing)
 .eh_frame      0x0000000000028270       0x70 build/native/contiki-ng-native.a(watchdog.o)
                                         0x88 (size before relaxing)
 .eh_frame      0x00000000000282e0      0x108 build/native/contiki-ng-native.a(httpd-simple.o)
                                        0x120 (size before relaxing)
 .eh_frame      0x00000000000283e8       0x58 build/native/contiki-ng-native.a(rpl-border-rout)
                                         0x70 (size before relaxing)
 .eh_frame      0x0000000000028440       0xa8 build/native/contiki-ng-native.a(stimer.o)
                                         0xc0 (size before relaxing)
 .eh_frame      0x00000000000284e8       0x70 build/native/contiki-ng-native.a(memb.o)
                                         0x88 (size before relaxing)
 .eh_frame      0x0000000000028558       0x30 build/native/contiki-ng-native.a(random.o)
                                         0x48 (size before relaxing)
 .eh_frame      0x0000000000028588      0x138 build/native/contiki-ng-native.a(button-hal.o)
                                        0x150 (size before relaxing)
 .eh_frame      0x00000000000286c0       0x80 build/native/contiki-ng-native.a(serial-line.o)
                                         0x98 (size before relaxing)
 .eh_frame      0x0000000000028740       0xb8 build/native/contiki-ng-native.a(leds.o)
                                         0xd0 (size before relaxing)
 .eh_frame      0x00000000000287f8      0x118 build/native/contiki-ng-native.a(nullradio.o)
                                        0x130 (size before relaxing)
 .eh_frame      0x0000000000028910       0xc8 build/native/contiki-ng-native.a(gpio-hal.o)
                                         0xe0 (size before relaxing)
 .eh_frame      0x00000000000289d8      0x190 build/native/contiki-ng-native.a(nbr-table.o)
                                        0x1a8 (size before relaxing)
 .eh_frame      0x0000000000028b68      0x128 build/native/contiki-ng-native.a(link-stats.o)
                                        0x140 (size before relaxing)
 .eh_frame      0x0000000000028c90       0x18 build/native/contiki-ng-native.a(mac.o)
                                         0x30 (size before relaxing)
 .eh_frame      0x0000000000028ca8       0xd8 build/native/contiki-ng-native.a(framer-802154.o)
                                         0xf0 (size before relaxing)
 .eh_frame      0x0000000000028d80      0x170 build/native/contiki-ng-native.a(frame802154.o)
                                        0x188 (size before relaxing)
 .eh_frame      0x0000000000028ef0      0x150 build/native/contiki-ng-native.a(uipbuf.o)
                                        0x168 (size before relaxing)
 .eh_frame      0x0000000000029040      0x178 build/native/contiki-ng-native.a(uip-icmp6.o)
                                        0x190 (size before relaxing)
 .eh_frame      0x00000000000291b8       0xb8 build/native/contiki-ng-native.a(uip-packetqueue)
                                         0xd0 (size before relaxing)
 .eh_frame      0x0000000000029270       0x48 build/native/contiki-ng-native.a(uip-udp-packet.)
                                         0x60 (size before relaxing)
 .eh_frame      0x00000000000292b8       0x60 build/native/contiki-ng-native.a(rpl-nbr-policy.)
                                         0x78 (size before relaxing)
 .eh_frame      0x0000000000029318      0x290 build/native/contiki-ng-native.a(rpl-neighbor.o)
                                        0x2a8 (size before relaxing)
 .eh_frame      0x00000000000295a8      0x360 build/native/contiki-ng-native.a(rpl-dag.o)
                                        0x378 (size before relaxing)
 .eh_frame      0x0000000000029908      0x340 build/native/contiki-ng-native.a(rpl-timers.o)
                                        0x358 (size before relaxing)
 .eh_frame      0x0000000000029c48      0x148 build/native/contiki-ng-native.a(rpl-ext-header.)
                                        0x160 (size before relaxing)
 .eh_frame      0x0000000000029d90      0x188 build/native/contiki-ng-native.a(rpl-mrhof.o)
                                        0x1a0 (size before relaxing)
 .eh_frame      0x0000000000029f18       0x60 build/native/contiki-ng-native.a(border-router-n)
                                         0x78 (size before relaxing)
 .eh_frame      0x0000000000029f78       0x50 build/native/contiki-ng-native.a(int-master.o)
                                         0x68 (size before relaxing)
 .eh_frame      0x0000000000029fc8      0x130 build/native/contiki-ng-native.a(gpio-hal-arch.o)
                                        0x148 (size before relaxing)
 .eh_frame      0x000000000002a0f8       0x68 build/native/contiki-ng-native.a(ringbuf.o)
                                         0x80 (size before relaxing)
 .eh_frame      0x000000000002a160       0x60 /usr/lib/x86_64-linux-gnu/libc_nonshared.a(elf-init.oS)
                                         0x78 (size before relaxing)
 .eh_frame      0x000000000002a1c0       0x14 /usr/lib/x86_64-linux-gnu/libc_nonshared.a(atexit.oS)
                                         0x30 (size before relaxing)
 .eh_frame      0x000000000002a1d4        0x4 /usr/lib/gcc/x86_64-linux-gnu/9/crtendS.o
 *(.eh_frame.*)

.gcc_except_table
 *(.gcc_except_table .gcc_except_table.*)

.gnu_extab
 *(.gnu_extab*)

.exception_ranges
 *(.exception_ranges*)
                0x000000000002b7d0                . = DATA_SEGMENT_ALIGN (CONSTANT (MAXPAGESIZE), CONSTANT (COMMONPAGESIZE))

.eh_frame
 *(.eh_frame)
 *(.eh_frame.*)

.gnu_extab
 *(.gnu_extab)

.gcc_except_table
 *(.gcc_except_table .gcc_except_table.*)

.exception_ranges
 *(.exception_ranges*)

.tdata          0x000000000002b7d0        0x0
                [!provide]                        PROVIDE (__tdata_start = .)
 *(.tdata .tdata.* .gnu.linkonce.td.*)

.tbss
 *(.tbss .tbss.* .gnu.linkonce.tb.*)
 *(.tcommon)

.preinit_array  0x000000000002b7d0        0x0
                [!provide]                        PROVIDE (__preinit_array_start = .)
 *(.preinit_array)
                [!provide]                        PROVIDE (__preinit_array_end = .)

.init_array     0x000000000002b7d0        0x8
                0x000000000002b7d0                PROVIDE (__init_array_start = .)
 *(SORT_BY_INIT_PRIORITY(.init_array.*) SORT_BY_INIT_PRIORITY(.ctors.*))
 *(.init_array EXCLUDE_FILE(*crtend?.o *crtend.o *crtbegin?.o *crtbegin.o) .ctors)
 .init_array    0x000000000002b7d0        0x8 /usr/lib/gcc/x86_64-linux-gnu/9/crtbeginS.o
                0x000000000002b7d8                PROVIDE (__init_array_end = .)

.fini_array     0x000000000002b7d8        0x8
                [!provide]                        PROVIDE (__fini_array_start = .)
 *(SORT_BY_INIT_PRIORITY(.fini_array.*) SORT_BY_INIT_PRIORITY(.dtors.*))
 *(.fini_array EXCLUDE_FILE(*crtend?.o *crtend.o *crtbegin?.o *crtbegin.o) .dtors)
 .fini_array    0x000000000002b7d8        0x8 /usr/lib/gcc/x86_64-linux-gnu/9/crtbeginS.o
                [!provide]                        PROVIDE (__fini_array_end = .)

.ctors
 *crtbegin.o(.ctors)
 *crtbegin?.o(.ctors)
 *(EXCLUDE_FILE(*crtend?.o *crtend.o) .ctors)
 *(SORT_BY_NAME(.ctors.*))
 *(.ctors)

.dtors
 *crtbegin.o(.dtors)
 *crtbegin?.o(.dtors)
 *(EXCLUDE_FILE(*crtend?.o *crtend.o) .dtors)
 *(SORT_BY_NAME(.dtors.*))
 *(.dtors)

.jcr
 *(.jcr)

.data.rel.ro    0x000000000002b7e0      0x3c0
 *(.data.rel.ro.local* .gnu.linkonce.d.rel.ro.local.*)
 .data.rel.ro.local
                0x000000000002b7e0       0x10 border-router.o
                0x000000000002b7e0                autostart_processes
 *fill*         0x000000000002b7f0       0x10 
 .data.rel.ro.local
                0x000000000002b800       0x20 build/native/contiki-ng-native.a(sicslowpan.o)
                0x000000000002b800                sicslowpan_driver
 .data.rel.ro.local
                0x000000000002b820       0x20 build/native/contiki-ng-native.a(tun-bridge.o)
                0x000000000002b820                rpl_interface
 .data.rel.ro.local
                0x000000000002b840       0x30 build/native/contiki-ng-native.a(slip-dev.o)
 *fill*         0x000000000002b870       0x10 
 .data.rel.ro.local
                0x000000000002b880       0x38 build/native/contiki-ng-native.a(border-router-m)
                0x000000000002b880                border_router_mac_driver
 *fill*         0x000000000002b8b8        0x8 
 .data.rel.ro.local
                0x000000000002b8c0      0x168 build/native/contiki-ng-native.a(shell-commands.)
                0x000000000002b8c0                builtin_shell_commands
 *fill*         0x000000000002ba28        0x8 
 .data.rel.ro.local
                0x000000000002ba30       0x10 build/native/contiki-ng-native.a(platform.o)
 .data.rel.ro.local
                0x000000000002ba40       0x70 build/native/contiki-ng-native.a(nullradio.o)
                0x000000000002ba40                nullradio_driver
 .data.rel.ro.local
                0x000000000002bab0       0x18 build/native/contiki-ng-native.a(framer-802154.o)
                0x000000000002bab0                framer_802154
 *(.data.rel.ro .data.rel.ro.* .gnu.linkonce.d.rel.ro.*)
 .data.rel.ro   0x000000000002bac8        0x0 /usr/lib/gcc/x86_64-linux-gnu/9/../../../x86_64-linux-gnu/Scrt1.o
 *fill*         0x000000000002bac8       0x18 
 .data.rel.ro   0x000000000002bae0       0xa8 build/native/contiki-ng-native.a(rpl.o)
                0x000000000002bae0                rpl_lite_driver
 *fill*         0x000000000002bb88        0x8 
 .data.rel.ro   0x000000000002bb90       0x10 build/native/contiki-ng-native.a(border-router-n)
                0x000000000002bb90                cmd_handlers

.dynamic        0x000000000002bba0      0x1f0
 *(.dynamic)
 .dynamic       0x000000000002bba0      0x1f0 /usr/lib/gcc/x86_64-linux-gnu/9/../../../x86_64-linux-gnu/Scrt1.o
                0x000000000002bba0                _DYNAMIC

.got            0x000000000002bd90      0x258
 *(.got.plt)
 .got.plt       0x000000000002bd90      0x230 /usr/lib/gcc/x86_64-linux-gnu/9/../../../x86_64-linux-gnu/Scrt1.o
                0x000000000002bd90                _GLOBAL_OFFSET_TABLE_
 *(.igot.plt)
 *(.got)
 .got           0x000000000002bfc0       0x28 /usr/lib/gcc/x86_64-linux-gnu/9/../../../x86_64-linux-gnu/Scrt1.o
 *(.igot)
                0x000000000002c000                . = DATA_SEGMENT_RELRO_END (., 0x0)

.data           0x000000000002c000      0x620
 *(.data .data.* .gnu.linkonce.d.*)
 .data          0x000000000002c000        0x4 /usr/lib/gcc/x86_64-linux-gnu/9/../../../x86_64-linux-gnu/Scrt1.o
                0x000000000002c000                data_start
                0x000000000002c000                __data_start
 .data          0x000000000002c004        0x0 /usr/lib/gcc/x86_64-linux-gnu/9/../../../x86_64-linux-gnu/crti.o
 .data          0x000000000002c004        0x0 /usr/lib/gcc/x86_64-linux-gnu/9/crtbeginS.o
 *fill*         0x000000000002c004        0x4 
 .data.rel.local
                0x000000000002c008        0x8 /usr/lib/gcc/x86_64-linux-gnu/9/crtbeginS.o
                0x000000000002c008                __dso_handle
 .data          0x000000000002c010        0x0 border-router.o
 *fill*         0x000000000002c010       0x10 
 .data.rel.local
                0x000000000002c020       0x20 border-router.o
                0x000000000002c020                contiki_ng_br
 .data          0x000000000002c040        0x0 build/native/contiki-ng-native.a(webserver.o)
 .data.rel.local
                0x000000000002c040       0x40 build/native/contiki-ng-native.a(webserver.o)
                0x000000000002c040                controller
                0x000000000002c060                webserver_nogui_process
 .data          0x000000000002c080        0x0 build/native/contiki-ng-native.a(contiki-main.o)
 .data          0x000000000002c080        0x0 build/native/contiki-ng-native.a(autostart.o)
 .data          0x000000000002c080        0x0 build/native/contiki-ng-native.a(ctimer.o)
 .data.rel.local
                0x000000000002c080       0x20 build/native/contiki-ng-native.a(ctimer.o)
                0x000000000002c080                ctimer_process
 .data          0x000000000002c0a0        0x4 build/native/contiki-ng-native.a(log.o)
                0x000000000002c0a0                curr_log_level_main
 *fill*         0x000000000002c0a4       0x1c 
 .data.rel.local
                0x000000000002c0c0      0x138 build/native/contiki-ng-native.a(log.o)
                0x000000000002c0c0                all_modules
 .data          0x000000000002c1f8        0x0 build/native/contiki-ng-native.a(energest.o)
 .data          0x000000000002c1f8        0x0 build/native/contiki-ng-native.a(etimer.o)
 *fill*         0x000000000002c1f8        0x8 
 .data.rel.local
                0x000000000002c200       0x20 build/native/contiki-ng-native.a(etimer.o)
                0x000000000002c200                etimer_process
 .data          0x000000000002c220        0x0 build/native/contiki-ng-native.a(node-id.o)
 .data          0x000000000002c220        0x0 build/native/contiki-ng-native.a(rtimer.o)
 .data          0x000000000002c220        0x0 build/native/contiki-ng-native.a(process.o)
 .data          0x000000000002c220        0x0 build/native/contiki-ng-native.a(timer.o)
 .data          0x000000000002c220        0x0 build/native/contiki-ng-native.a(list.o)
 .data          0x000000000002c220        0x0 build/native/contiki-ng-native.a(queuebuf.o)
 .data.rel.local
                0x000000000002c220       0x38 build/native/contiki-ng-native.a(queuebuf.o)
 .data          0x000000000002c258        0x0 build/native/contiki-ng-native.a(packetbuf.o)
 .data          0x000000000002c258        0x0 build/native/contiki-ng-native.a(netstack.o)
 .data          0x000000000002c258        0x0 build/native/contiki-ng-native.a(linkaddr.o)
 .data          0x000000000002c258        0x0 build/native/contiki-ng-native.a(uip-sr.o)
 *fill*         0x000000000002c258        0x8 
 .data.rel.local
                0x000000000002c260       0x18 build/native/contiki-ng-native.a(uip-sr.o)
 .data          0x000000000002c278        0x0 build/native/contiki-ng-native.a(uip-ds6.o)
 .data          0x000000000002c278        0x0 build/native/contiki-ng-native.a(uip-ds6-route.o)
 *fill*         0x000000000002c278        0x8 
 .data.rel.local
                0x000000000002c280       0x18 build/native/contiki-ng-native.a(uip-ds6-route.o)
 .data          0x000000000002c298        0x0 build/native/contiki-ng-native.a(psock.o)
 .data          0x000000000002c298        0x0 build/native/contiki-ng-native.a(tcpip.o)
 *fill*         0x000000000002c298        0x8 
 .data.rel.local
                0x000000000002c2a0       0x20 build/native/contiki-ng-native.a(tcpip.o)
                0x000000000002c2a0                tcpip_process
 .data          0x000000000002c2c0        0x0 build/native/contiki-ng-native.a(uip6.o)
 .data          0x000000000002c2c0        0x0 build/native/contiki-ng-native.a(uip-ds6-nbr.o)
 .data.rel.local
                0x000000000002c2c0       0x18 build/native/contiki-ng-native.a(uip-ds6-nbr.o)
 .data          0x000000000002c2d8        0x0 build/native/contiki-ng-native.a(uip-nd6.o)
 *fill*         0x000000000002c2d8        0x8 
 .data.rel.local
                0x000000000002c2e0       0x18 build/native/contiki-ng-native.a(uip-nd6.o)
 .data          0x000000000002c2f8        0x0 build/native/contiki-ng-native.a(simple-udp.o)
 *fill*         0x000000000002c2f8        0x8 
 .data.rel.local
                0x000000000002c300       0x20 build/native/contiki-ng-native.a(simple-udp.o)
                0x000000000002c300                simple_udp_process
 .data          0x000000000002c320        0x0 build/native/contiki-ng-native.a(sicslowpan.o)
 .data          0x000000000002c320        0x0 build/native/contiki-ng-native.a(uiplib.o)
 .data          0x000000000002c320        0x0 build/native/contiki-ng-native.a(rpl.o)
 .data          0x000000000002c320        0x0 build/native/contiki-ng-native.a(rpl-icmp6.o)
 .data.rel.local
                0x000000000002c320       0xd8 build/native/contiki-ng-native.a(rpl-icmp6.o)
 .data          0x000000000002c3f8        0x0 build/native/contiki-ng-native.a(rpl-dag-root.o)
 .data          0x000000000002c3f8        0x0 build/native/contiki-ng-native.a(tun-bridge.o)
 .data          0x000000000002c3f8        0x0 build/native/contiki-ng-native.a(slip-dev.o)
 .data          0x000000000002c3f8        0x4 build/native/contiki-ng-native.a(slip-config.o)
                0x000000000002c3f8                slip_config_b_rate
 .data          0x000000000002c3fc        0x0 build/native/contiki-ng-native.a(border-router-m)
 .data          0x000000000002c3fc        0x0 build/native/contiki-ng-native.a(border-router-c)
 *fill*         0x000000000002c3fc        0x4 
 .data.rel.local
                0x000000000002c400       0x20 build/native/contiki-ng-native.a(border-router-c)
                0x000000000002c400                border_router_cmd_process
 .data          0x000000000002c420        0x0 build/native/contiki-ng-native.a(cmd.o)
 .data          0x000000000002c420        0x0 build/native/contiki-ng-native.a(packetutils.o)
 .data          0x000000000002c420        0x0 build/native/contiki-ng-native.a(shell.o)
 .data          0x000000000002c420        0x0 build/native/contiki-ng-native.a(shell-commands.)
 .data.rel.local
                0x000000000002c420       0x10 build/native/contiki-ng-native.a(shell-commands.)
 .data          0x000000000002c430        0x0 build/native/contiki-ng-native.a(serial-shell.o)
 *fill*         0x000000000002c430       0x10 
 .data.rel.local
                0x000000000002c440       0x20 build/native/contiki-ng-native.a(serial-shell.o)
                0x000000000002c440                serial_shell_process
 .data          0x000000000002c460        0x0 build/native/contiki-ng-native.a(platform.o)
 .data          0x000000000002c460        0x0 build/native/contiki-ng-native.a(clock.o)
 .data          0x000000000002c460        0x0 build/native/contiki-ng-native.a(rtimer-arch.o)
 .data          0x000000000002c460        0x0 build/native/contiki-ng-native.a(watchdog.o)
 .data          0x000000000002c460        0x0 build/native/contiki-ng-native.a(httpd-simple.o)
 .data.rel.local
                0x000000000002c460       0x18 build/native/contiki-ng-native.a(httpd-simple.o)
 .data          0x000000000002c478        0x0 build/native/contiki-ng-native.a(rpl-border-rout)
 .data          0x000000000002c478        0x0 build/native/contiki-ng-native.a(stimer.o)
 .data          0x000000000002c478        0x0 build/native/contiki-ng-native.a(memb.o)
 .data          0x000000000002c478        0x0 build/native/contiki-ng-native.a(random.o)
 .data          0x000000000002c478        0x0 build/native/contiki-ng-native.a(button-hal.o)
 *fill*         0x000000000002c478        0x8 
 .data.rel.local
                0x000000000002c480       0x20 build/native/contiki-ng-native.a(button-hal.o)
                0x000000000002c480                button_hal_process
 .data          0x000000000002c4a0        0x0 build/native/contiki-ng-native.a(serial-line.o)
 .data.rel.local
                0x000000000002c4a0       0x20 build/native/contiki-ng-native.a(serial-line.o)
                0x000000000002c4a0                serial_line_process
 .data          0x000000000002c4c0        0x0 build/native/contiki-ng-native.a(leds.o)
 .data          0x000000000002c4c0        0x0 build/native/contiki-ng-native.a(nullradio.o)
 .data          0x000000000002c4c0        0x0 build/native/contiki-ng-native.a(gpio-hal.o)
 .data          0x000000000002c4c0        0x0 build/native/contiki-ng-native.a(nbr-table.o)
 .data.rel.local
                0x000000000002c4c0       0x18 build/native/contiki-ng-native.a(nbr-table.o)
 .data          0x000000000002c4d8        0x0 build/native/contiki-ng-native.a(link-stats.o)
 *fill*         0x000000000002c4d8        0x8 
 .data.rel.local
                0x000000000002c4e0       0x18 build/native/contiki-ng-native.a(link-stats.o)
 .data          0x000000000002c4f8        0x0 build/native/contiki-ng-native.a(mac.o)
 .data          0x000000000002c4f8        0x0 build/native/contiki-ng-native.a(framer-802154.o)
 .data          0x000000000002c4f8        0x2 build/native/contiki-ng-native.a(frame802154.o)
 .data          0x000000000002c4fa        0x0 build/native/contiki-ng-native.a(uipbuf.o)
 .data          0x000000000002c4fa        0x0 build/native/contiki-ng-native.a(uip-icmp6.o)
 *fill*         0x000000000002c4fa        0x6 
 .data.rel.local
                0x000000000002c500       0x38 build/native/contiki-ng-native.a(uip-icmp6.o)
 .data          0x000000000002c538        0x0 build/native/contiki-ng-native.a(uip-packetqueue)
 *fill*         0x000000000002c538        0x8 
 .data.rel.local
                0x000000000002c540       0x18 build/native/contiki-ng-native.a(uip-packetqueue)
 .data          0x000000000002c558        0x0 build/native/contiki-ng-native.a(uip-udp-packet.)
 .data          0x000000000002c558        0x0 build/native/contiki-ng-native.a(rpl-nbr-policy.)
 .data          0x000000000002c558        0x0 build/native/contiki-ng-native.a(rpl-neighbor.o)
 *fill*         0x000000000002c558        0x8 
 .data.rel.local
                0x000000000002c560       0x28 build/native/contiki-ng-native.a(rpl-neighbor.o)
                0x000000000002c560                rpl_neighbors
 .data          0x000000000002c588        0x0 build/native/contiki-ng-native.a(rpl-dag.o)
 .data          0x000000000002c588        0x0 build/native/contiki-ng-native.a(rpl-timers.o)
 .data          0x000000000002c588        0x0 build/native/contiki-ng-native.a(rpl-ext-header.)
 .data          0x000000000002c588        0x0 build/native/contiki-ng-native.a(rpl-mrhof.o)
 *fill*         0x000000000002c588       0x18 
 .data.rel.local
                0x000000000002c5a0       0x48 build/native/contiki-ng-native.a(rpl-mrhof.o)
                0x000000000002c5a0                rpl_mrhof
 .data          0x000000000002c5e8        0x0 build/native/contiki-ng-native.a(border-router-n)
 *fill*         0x000000000002c5e8       0x18 
 .data.rel.local
                0x000000000002c600       0x20 build/native/contiki-ng-native.a(border-router-n)
                0x000000000002c600                border_router_process
 .data          0x000000000002c620        0x0 build/native/contiki-ng-native.a(buttons.o)
 .data          0x000000000002c620        0x0 build/native/contiki-ng-native.a(int-master.o)
 .data          0x000000000002c620        0x0 build/native/contiki-ng-native.a(gpio-hal-arch.o)
 .data          0x000000000002c620        0x0 build/native/contiki-ng-native.a(ringbuf.o)
 .data          0x000000000002c620        0x0 /usr/lib/x86_64-linux-gnu/libc_nonshared.a(elf-init.oS)
 .data          0x000000000002c620        0x0 /usr/lib/x86_64-linux-gnu/libc_nonshared.a(atexit.oS)
 .data          0x000000000002c620        0x0 /usr/lib/gcc/x86_64-linux-gnu/9/crtendS.o
 .data          0x000000000002c620        0x0 /usr/lib/gcc/x86_64-linux-gnu/9/../../../x86_64-linux-gnu/crtn.o

.tm_clone_table
                0x000000000002c620        0x0
 .tm_clone_table
                0x000000000002c620        0x0 /usr/lib/gcc/x86_64-linux-gnu/9/crtbeginS.o
 .tm_clone_table
                0x000000000002c620        0x0 /usr/lib/gcc/x86_64-linux-gnu/9/crtendS.o

.data1
 *(.data1)
                0x000000000002c620                _edata = .
                [!provide]                        PROVIDE (edata = .)
                0x000000000002c620                . = .
                0x000000000002c620                __bss_start = .

.bss            0x000000000002c620    0x10a00
 *(.dynbss)
 .dynbss        0x000000000002c620       0x28 /usr/lib/gcc/x86_64-linux-gnu/9/../../../x86_64-linux-gnu/Scrt1.o
                0x000000000002c620                stdout@@GLIBC_2.2.5
                0x000000000002c628                optind@@GLIBC_2.2.5
                0x000000000002c630                optarg@@GLIBC_2.2.5
                0x000000000002c640                stderr@@GLIBC_2.2.5
 *(.bss .bss.* .gnu.linkonce.b.*)
 .bss           0x000000000002c648        0x0 /usr/lib/gcc/x86_64-linux-gnu/9/../../../x86_64-linux-gnu/Scrt1.o
 .bss           0x000000000002c648        0x0 /usr/lib/gcc/x86_64-linux-gnu/9/../../../x86_64-linux-gnu/crti.o
 .bss           0x000000000002c648        0x1 /usr/lib/gcc/x86_64-linux-gnu/9/crtbeginS.o
 .bss           0x000000000002c649        0x0 border-router.o
 *fill*         0x000000000002c649       0x17 
 .bss           0x000000000002c660      0x178 build/native/contiki-ng-native.a(webserver.o)
 .bss           0x000000000002c7d8        0x0 build/native/contiki-ng-native.a(contiki-main.o)
 .bss           0x000000000002c7d8        0x0 build/native/contiki-ng-native.a(autostart.o)
 .bss           0x000000000002c7d8       0x10 build/native/contiki-ng-native.a(ctimer.o)
 .bss           0x000000000002c7e8       0x2c build/native/contiki-ng-native.a(log.o)
                0x000000000002c7e8                curr_log_level_lwm2m
                0x000000000002c7ec                curr_log_level_snmp
                0x000000000002c7f0                curr_log_level_coap
                0x000000000002c7f4                curr_log_level_6top
                0x000000000002c7f8                curr_log_level_framer
                0x000000000002c7fc                curr_log_level_mac
                0x000000000002c800                curr_log_level_nullnet
                0x000000000002c804                curr_log_level_6lowpan
                0x000000000002c808                curr_log_level_ipv6
                0x000000000002c80c                curr_log_level_tcpip
                0x000000000002c810                curr_log_level_rpl
 .bss           0x000000000002c814        0x0 build/native/contiki-ng-native.a(energest.o)
 *fill*         0x000000000002c814        0x4 
 .bss           0x000000000002c818       0x10 build/native/contiki-ng-native.a(etimer.o)
 .bss           0x000000000002c828        0x2 build/native/contiki-ng-native.a(node-id.o)
                0x000000000002c828                node_id
 *fill*         0x000000000002c82a        0x6 
 .bss           0x000000000002c830        0x8 build/native/contiki-ng-native.a(rtimer.o)
 *fill*         0x000000000002c838        0x8 
 .bss           0x000000000002c840      0x323 build/native/contiki-ng-native.a(process.o)
                0x000000000002c840                process_current
                0x000000000002c848                process_list
 .bss           0x000000000002cb63        0x0 build/native/contiki-ng-native.a(timer.o)
 .bss           0x000000000002cb63        0x0 build/native/contiki-ng-native.a(list.o)
 *fill*         0x000000000002cb63       0x1d 
 .bss           0x000000000002cb80     0x2d80 build/native/contiki-ng-native.a(queuebuf.o)
 .bss           0x000000000002f900       0x86 build/native/contiki-ng-native.a(packetbuf.o)
 *fill*         0x000000000002f986        0x2 
 .bss           0x000000000002f988        0x8 build/native/contiki-ng-native.a(netstack.o)
 .bss           0x000000000002f990        0x0 build/native/contiki-ng-native.a(linkaddr.o)
 *fill*         0x000000000002f990       0x10 
 .bss           0x000000000002f9a0     0x301c build/native/contiki-ng-native.a(uip-sr.o)
 *fill*         0x00000000000329bc        0x4 
 .bss           0x00000000000329c0       0x40 build/native/contiki-ng-native.a(uip-ds6.o)
 .bss           0x0000000000032a00       0x70 build/native/contiki-ng-native.a(uip-ds6-route.o)
 .bss           0x0000000000032a70        0x0 build/native/contiki-ng-native.a(psock.o)
 *fill*         0x0000000000032a70       0x10 
 .bss           0x0000000000032a80      0x180 build/native/contiki-ng-native.a(tcpip.o)
 .bss           0x0000000000032c00        0xc build/native/contiki-ng-native.a(uip6.o)
                0x0000000000032c00                uip_last_proto
                0x0000000000032c02                uip_ext_len
                0x0000000000032c04                uip_ext_bitmap
 *fill*         0x0000000000032c0c       0x14 
 .bss           0x0000000000032c20     0x2580 build/native/contiki-ng-native.a(uip-ds6-nbr.o)
 .bss           0x00000000000351a0       0x19 build/native/contiki-ng-native.a(uip-nd6.o)
 *fill*         0x00000000000351b9        0x7 
 .bss           0x00000000000351c0      0x501 build/native/contiki-ng-native.a(simple-udp.o)
 *fill*         0x00000000000356c1       0x1f 
 .bss           0x00000000000356e0      0x748 build/native/contiki-ng-native.a(sicslowpan.o)
 .bss           0x0000000000035e28        0x0 build/native/contiki-ng-native.a(uiplib.o)
 .bss           0x0000000000035e28        0x1 build/native/contiki-ng-native.a(rpl.o)
 *fill*         0x0000000000035e29        0x7 
 .bss           0x0000000000035e30       0x10 build/native/contiki-ng-native.a(rpl-icmp6.o)
 .bss           0x0000000000035e40       0x11 build/native/contiki-ng-native.a(rpl-dag-root.o)
 *fill*         0x0000000000035e51        0x3 
 .bss           0x0000000000035e54       0x10 build/native/contiki-ng-native.a(tun-bridge.o)
 *fill*         0x0000000000035e64       0x1c 
 .bss           0x0000000000035e80      0x848 build/native/contiki-ng-native.a(slip-dev.o)
                0x0000000000035e80                slipfd
                0x0000000000035e88                slip_received
                0x0000000000035e90                slip_sent
 *fill*         0x00000000000366c8       0x18 
 .bss           0x00000000000366e0       0x64 build/native/contiki-ng-native.a(slip-config.o)
                0x00000000000366e0                slip_config_basedelay
                0x0000000000036700                slip_config_tundev
                0x0000000000036720                slip_config_port
                0x0000000000036728                slip_config_host
                0x0000000000036730                slip_config_siodev
                0x0000000000036738                slip_config_timestamp
                0x000000000003673c                slip_config_flowcontrol
                0x0000000000036740                slip_config_verbose
 *fill*         0x0000000000036744       0x1c 
 .bss           0x0000000000036760      0x404 build/native/contiki-ng-native.a(border-router-m)
 .bss           0x0000000000036b64        0x2 build/native/contiki-ng-native.a(border-router-c)
 .bss           0x0000000000036b66        0x0 build/native/contiki-ng-native.a(cmd.o)
 .bss           0x0000000000036b66        0x0 build/native/contiki-ng-native.a(packetutils.o)
 *fill*         0x0000000000036b66        0x2 
 .bss           0x0000000000036b68       0x18 build/native/contiki-ng-native.a(shell.o)
 .bss           0x0000000000036b80       0xa0 build/native/contiki-ng-native.a(shell-commands.)
 .bss           0x0000000000036c20        0x2 build/native/contiki-ng-native.a(serial-shell.o)
 *fill*         0x0000000000036c22       0x1e 
 .bss           0x0000000000036c40       0x60 build/native/contiki-ng-native.a(platform.o)
                0x0000000000036c40                contiki_argc
 .bss           0x0000000000036ca0        0x0 build/native/contiki-ng-native.a(clock.o)
 .bss           0x0000000000036ca0        0x0 build/native/contiki-ng-native.a(rtimer-arch.o)
 .bss           0x0000000000036ca0        0x0 build/native/contiki-ng-native.a(watchdog.o)
 .bss           0x0000000000036ca0      0x182 build/native/contiki-ng-native.a(httpd-simple.o)
 .bss           0x0000000000036e22        0x0 build/native/contiki-ng-native.a(rpl-border-rout)
 .bss           0x0000000000036e22        0x0 build/native/contiki-ng-native.a(stimer.o)
 .bss           0x0000000000036e22        0x0 build/native/contiki-ng-native.a(memb.o)
 .bss           0x0000000000036e22        0x0 build/native/contiki-ng-native.a(random.o)
 *fill*         0x0000000000036e22        0xe 
 .bss           0x0000000000036e30       0x1c build/native/contiki-ng-native.a(button-hal.o)
 *fill*         0x0000000000036e4c       0x14 
 .bss           0x0000000000036e60      0x150 build/native/contiki-ng-native.a(serial-line.o)
 .bss           0x0000000000036fb0        0x0 build/native/contiki-ng-native.a(leds.o)
 .bss           0x0000000000036fb0        0x0 build/native/contiki-ng-native.a(nullradio.o)
 .bss           0x0000000000036fb0        0x8 build/native/contiki-ng-native.a(gpio-hal.o)
 *fill*         0x0000000000036fb8        0x8 
 .bss           0x0000000000036fc0     0x16cc build/native/contiki-ng-native.a(nbr-table.o)
 *fill*         0x000000000003868c       0x14 
 .bss           0x00000000000386a0     0x12c0 build/native/contiki-ng-native.a(link-stats.o)
 .bss           0x0000000000039960        0x0 build/native/contiki-ng-native.a(mac.o)
 .bss           0x0000000000039960        0x2 build/native/contiki-ng-native.a(framer-802154.o)
 .bss           0x0000000000039962        0x0 build/native/contiki-ng-native.a(frame802154.o)
 *fill*         0x0000000000039962        0x6 
 .bss           0x0000000000039968       0x1c build/native/contiki-ng-native.a(uipbuf.o)
 *fill*         0x0000000000039984        0xc 
 .bss           0x0000000000039990       0x20 build/native/contiki-ng-native.a(uip-icmp6.o)
 *fill*         0x00000000000399b0       0x10 
 .bss           0x00000000000399c0      0xab2 build/native/contiki-ng-native.a(uip-packetqueue)
 .bss           0x000000000003a472        0x0 build/native/contiki-ng-native.a(uip-udp-packet.)
 *fill*         0x000000000003a472        0x6 
 .bss           0x000000000003a478       0x14 build/native/contiki-ng-native.a(rpl-nbr-policy.)
 *fill*         0x000000000003a48c       0x14 
 .bss           0x000000000003a4a0     0x12c0 build/native/contiki-ng-native.a(rpl-neighbor.o)
 .bss           0x000000000003b760        0x0 build/native/contiki-ng-native.a(rpl-dag.o)
 .bss           0x000000000003b760       0x80 build/native/contiki-ng-native.a(rpl-timers.o)
 .bss           0x000000000003b7e0        0x0 build/native/contiki-ng-native.a(rpl-ext-header.)
 .bss           0x000000000003b7e0        0x0 build/native/contiki-ng-native.a(rpl-mrhof.o)
 .bss           0x000000000003b7e0       0x21 build/native/contiki-ng-native.a(border-router-n)
 *fill*         0x000000000003b801        0x7 
 .bss           0x000000000003b808        0x8 build/native/contiki-ng-native.a(buttons.o)
                0x000000000003b808                button_hal_buttons
 .bss           0x000000000003b810        0x4 build/native/contiki-ng-native.a(int-master.o)
 *fill*         0x000000000003b814        0xc 
 .bss           0x000000000003b820       0xa0 build/native/contiki-ng-native.a(gpio-hal-arch.o)
 .bss           0x000000000003b8c0        0x0 build/native/contiki-ng-native.a(ringbuf.o)
 .bss           0x000000000003b8c0        0x0 /usr/lib/x86_64-linux-gnu/libc_nonshared.a(elf-init.oS)
 .bss           0x000000000003b8c0        0x0 /usr/lib/x86_64-linux-gnu/libc_nonshared.a(atexit.oS)
 .bss           0x000000000003b8c0        0x0 /usr/lib/gcc/x86_64-linux-gnu/9/crtendS.o
 .bss           0x000000000003b8c0        0x0 /usr/lib/gcc/x86_64-linux-gnu/9/../../../x86_64-linux-gnu/crtn.o
 *(COMMON)
 COMMON         0x000000000003b8c0       0x30 build/native/contiki-ng-native.a(webserver.o)
                0x000000000003b8c0                VIA2
                0x000000000003b8d0                PDAO_SET
                0x000000000003b8e0                VIA1
 *fill*         0x000000000003b8f0       0x10 
 COMMON         0x000000000003b900       0xf0 build/native/contiki-ng-native.a(contiki-main.o)
                0x000000000003b900                eb_per_time_source
                0x000000000003b940                unicast_per_neighbor_rpl_storing
                0x000000000003b980                unicast_per_neighbor_rpl_ns
                0x000000000003b9c0                default_common
 COMMON         0x000000000003b9f0       0x30 build/native/contiki-ng-native.a(packetbuf.o)
                0x000000000003b9f0                packetbuf_attrs
                0x000000000003ba10                packetbuf_addrs
 COMMON         0x000000000003ba20        0x8 build/native/contiki-ng-native.a(linkaddr.o)
                0x000000000003ba20                linkaddr_node_addr
 *fill*         0x000000000003ba28       0x18 
 COMMON         0x000000000003ba40      0x1f1 build/native/contiki-ng-native.a(uip-ds6.o)
                0x000000000003ba40                uip_ds6_prefix_list
                0x000000000003baa0                uip_ds6_timer_periodic
                0x000000000003bac0                uip_ds6_netif_addr_list_offset
                0x000000000003bae0                uip_ds6_if
                0x000000000003bc20                uip_ds6_timer_ra
                0x000000000003bc30                uip_ds6_addr_size
 COMMON         0x000000000003bc31        0x1 build/native/contiki-ng-native.a(tcpip.o)
                0x000000000003bc31                tcpip_event
 *fill*         0x000000000003bc32        0xe 
 COMMON         0x000000000003bc40      0x890 build/native/contiki-ng-native.a(uip6.o)
                0x000000000003bc40                uip_slen
                0x000000000003bc42                uip_acc32
                0x000000000003bc60                uip_conns
                0x000000000003be20                uip_lladdr
                0x000000000003be28                uip_appdata
                0x000000000003be30                uip_flags
                0x000000000003be40                uip_aligned_buf
                0x000000000003c340                uip_listenports
                0x000000000003c368                uip_len
                0x000000000003c370                uip_sappdata
                0x000000000003c380                uip_udp_conns
                0x000000000003c4c0                uip_udp_conn
                0x000000000003c4c8                uip_conn
 COMMON         0x000000000003c4d0       0x10 build/native/contiki-ng-native.a(rpl.o)
                0x000000000003c4d0                rpl_multicast_addr
 COMMON         0x000000000003c4e0      0x824 build/native/contiki-ng-native.a(slip-dev.o)
                0x000000000003c4e0                slip_packet_end
                0x000000000003c4e4                slip_begin
                0x000000000003c4e8                slip_end
                0x000000000003c500                slip_buf
                0x000000000003cd00                slip_packet_count
 *fill*         0x000000000003cd04        0x4 
 COMMON         0x000000000003cd08        0x8 build/native/contiki-ng-native.a(slip-config.o)
                0x000000000003cd08                slip_config_ipaddr
 COMMON         0x000000000003cd10        0x1 build/native/contiki-ng-native.a(border-router-c)
                0x000000000003cd10                command_context
 *fill*         0x000000000003cd11        0x7 
 COMMON         0x000000000003cd18        0x8 build/native/contiki-ng-native.a(platform.o)
                0x000000000003cd18                contiki_argv
 COMMON         0x000000000003cd20        0x1 build/native/contiki-ng-native.a(rpl-border-rout)
                0x000000000003cd20                prefix_set
 COMMON         0x000000000003cd21        0x3 build/native/contiki-ng-native.a(button-hal.o)
                0x000000000003cd21                button_hal_periodic_event
                0x000000000003cd22                button_hal_press_event
                0x000000000003cd23                button_hal_release_event
 COMMON         0x000000000003cd24        0x1 build/native/contiki-ng-native.a(serial-line.o)
                0x000000000003cd24                serial_line_event_message
 *fill*         0x000000000003cd25       0x1b 
 COMMON         0x000000000003cd40       0x40 build/native/contiki-ng-native.a(link-stats.o)
                0x000000000003cd40                periodic_timer
 COMMON         0x000000000003cd80      0x2a0 build/native/contiki-ng-native.a(rpl-dag.o)
                0x000000000003cd80                curr_instance
                0x000000000003d020                . = ALIGN ((. != 0x0)?0x8:0x1)

.lbss
 *(.dynlbss)
 *(.lbss .lbss.* .gnu.linkonce.lb.*)
 *(LARGE_COMMON)
                0x000000000003d020                . = ALIGN (0x8)
                0x000000000003d020                . = SEGMENT_START ("ldata-segment", .)

.lrodata
 *(.lrodata .lrodata.* .gnu.linkonce.lr.*)

.ldata          0x000000000003f020        0x0
 *(.ldata .ldata.* .gnu.linkonce.l.*)
                0x000000000003f020                . = ALIGN ((. != 0x0)?0x8:0x1)
                0x000000000003f020                . = ALIGN (0x8)
                0x000000000003d020                _end = .
                [!provide]                        PROVIDE (end = .)
                0x000000000003f020                . = DATA_SEGMENT_END (.)

.stab
 *(.stab)

.stabstr
 *(.stabstr)

.stab.excl
 *(.stab.excl)

.stab.exclstr
 *(.stab.exclstr)

.stab.index
 *(.stab.index)

.stab.indexstr
 *(.stab.indexstr)

.comment        0x0000000000000000       0x2a
 *(.comment)
 .comment       0x0000000000000000       0x2a /usr/lib/gcc/x86_64-linux-gnu/9/crtbeginS.o
                                         0x2b (size before relaxing)
 .comment       0x000000000000002a       0x2b border-router.o
 .comment       0x000000000000002a       0x2b build/native/contiki-ng-native.a(webserver.o)
 .comment       0x000000000000002a       0x2b build/native/contiki-ng-native.a(contiki-main.o)
 .comment       0x000000000000002a       0x2b build/native/contiki-ng-native.a(autostart.o)
 .comment       0x000000000000002a       0x2b build/native/contiki-ng-native.a(ctimer.o)
 .comment       0x000000000000002a       0x2b build/native/contiki-ng-native.a(log.o)
 .comment       0x000000000000002a       0x2b build/native/contiki-ng-native.a(energest.o)
 .comment       0x000000000000002a       0x2b build/native/contiki-ng-native.a(etimer.o)
 .comment       0x000000000000002a       0x2b build/native/contiki-ng-native.a(node-id.o)
 .comment       0x000000000000002a       0x2b build/native/contiki-ng-native.a(rtimer.o)
 .comment       0x000000000000002a       0x2b build/native/contiki-ng-native.a(process.o)
 .comment       0x000000000000002a       0x2b build/native/contiki-ng-native.a(timer.o)
 .comment       0x000000000000002a       0x2b build/native/contiki-ng-native.a(list.o)
 .comment       0x000000000000002a       0x2b build/native/contiki-ng-native.a(queuebuf.o)
 .comment       0x000000000000002a       0x2b build/native/contiki-ng-native.a(packetbuf.o)
 .comment       0x000000000000002a       0x2b build/native/contiki-ng-native.a(netstack.o)
 .comment       0x000000000000002a       0x2b build/native/contiki-ng-native.a(linkaddr.o)
 .comment       0x000000000000002a       0x2b build/native/contiki-ng-native.a(uip-sr.o)
 .comment       0x000000000000002a       0x2b build/native/contiki-ng-native.a(uip-ds6.o)
 .comment       0x000000000000002a       0x2b build/native/contiki-ng-native.a(uip-ds6-route.o)
 .comment       0x000000000000002a       0x2b build/native/contiki-ng-native.a(psock.o)
 .comment       0x000000000000002a       0x2b build/native/contiki-ng-native.a(tcpip.o)
 .comment       0x000000000000002a       0x2b build/native/contiki-ng-native.a(uip6.o)
 .comment       0x000000000000002a       0x2b build/native/contiki-ng-native.a(uip-ds6-nbr.o)
 .comment       0x000000000000002a       0x2b build/native/contiki-ng-native.a(uip-nd6.o)
 .comment       0x000000000000002a       0x2b build/native/contiki-ng-native.a(simple-udp.o)
 .comment       0x000000000000002a       0x2b build/native/contiki-ng-native.a(sicslowpan.o)
 .comment       0x000000000000002a       0x2b build/native/contiki-ng-native.a(uiplib.o)
 .comment       0x000000000000002a       0x2b build/native/contiki-ng-native.a(rpl.o)
 .comment       0x000000000000002a       0x2b build/native/contiki-ng-native.a(rpl-icmp6.o)
 .comment       0x000000000000002a       0x2b build/native/contiki-ng-native.a(rpl-dag-root.o)
 .comment       0x000000000000002a       0x2b build/native/contiki-ng-native.a(tun-bridge.o)
 .comment       0x000000000000002a       0x2b build/native/contiki-ng-native.a(slip-dev.o)
 .comment       0x000000000000002a       0x2b build/native/contiki-ng-native.a(slip-config.o)
 .comment       0x000000000000002a       0x2b build/native/contiki-ng-native.a(border-router-m)
 .comment       0x000000000000002a       0x2b build/native/contiki-ng-native.a(border-router-c)
 .comment       0x000000000000002a       0x2b build/native/contiki-ng-native.a(cmd.o)
 .comment       0x000000000000002a       0x2b build/native/contiki-ng-native.a(packetutils.o)
 .comment       0x000000000000002a       0x2b build/native/contiki-ng-native.a(shell.o)
 .comment       0x000000000000002a       0x2b build/native/contiki-ng-native.a(shell-commands.)
 .comment       0x000000000000002a       0x2b build/native/contiki-ng-native.a(serial-shell.o)
 .comment       0x000000000000002a       0x2b build/native/contiki-ng-native.a(platform.o)
 .comment       0x000000000000002a       0x2b build/native/contiki-ng-native.a(clock.o)
 .comment       0x000000000000002a       0x2b build/native/contiki-ng-native.a(rtimer-arch.o)
 .comment       0x000000000000002a       0x2b build/native/contiki-ng-native.a(watchdog.o)
 .comment       0x000000000000002a       0x2b build/native/contiki-ng-native.a(httpd-simple.o)
 .comment       0x000000000000002a       0x2b build/native/contiki-ng-native.a(rpl-border-rout)
 .comment       0x000000000000002a       0x2b build/native/contiki-ng-native.a(stimer.o)
 .comment       0x000000000000002a       0x2b build/native/contiki-ng-native.a(memb.o)
 .comment       0x000000000000002a       0x2b build/native/contiki-ng-native.a(random.o)
 .comment       0x000000000000002a       0x2b build/native/contiki-ng-native.a(button-hal.o)
 .comment       0x000000000000002a       0x2b build/native/contiki-ng-native.a(serial-line.o)
 .comment       0x000000000000002a       0x2b build/native/contiki-ng-native.a(leds.o)
 .comment       0x000000000000002a       0x2b build/native/contiki-ng-native.a(nullradio.o)
 .comment       0x000000000000002a       0x2b build/native/contiki-ng-native.a(gpio-hal.o)
 .comment       0x000000000000002a       0x2b build/native/contiki-ng-native.a(nbr-table.o)
 .comment       0x000000000000002a       0x2b build/native/contiki-ng-native.a(link-stats.o)
 .comment       0x000000000000002a       0x2b build/native/contiki-ng-native.a(mac.o)
 .comment       0x000000000000002a       0x2b build/native/contiki-ng-native.a(framer-802154.o)
 .comment       0x000000000000002a       0x2b build/native/contiki-ng-native.a(frame802154.o)
 .comment       0x000000000000002a       0x2b build/native/contiki-ng-native.a(uipbuf.o)
 .comment       0x000000000000002a       0x2b build/native/contiki-ng-native.a(uip-icmp6.o)
 .comment       0x000000000000002a       0x2b build/native/contiki-ng-native.a(uip-packetqueue)
 .comment       0x000000000000002a       0x2b build/native/contiki-ng-native.a(uip-udp-packet.)
 .comment       0x000000000000002a       0x2b build/native/contiki-ng-native.a(rpl-nbr-policy.)
 .comment       0x000000000000002a       0x2b build/native/contiki-ng-native.a(rpl-neighbor.o)
 .comment       0x000000000000002a       0x2b build/native/contiki-ng-native.a(rpl-dag.o)
 .comment       0x000000000000002a       0x2b build/native/contiki-ng-native.a(rpl-timers.o)
 .comment       0x000000000000002a       0x2b build/native/contiki-ng-native.a(rpl-ext-header.)
 .comment       0x000000000000002a       0x2b build/native/contiki-ng-native.a(rpl-mrhof.o)
 .comment       0x000000000000002a       0x2b build/native/contiki-ng-native.a(border-router-n)
 .comment       0x000000000000002a       0x2b build/native/contiki-ng-native.a(buttons.o)
 .comment       0x000000000000002a       0x2b build/native/contiki-ng-native.a(int-master.o)
 .comment       0x000000000000002a       0x2b build/native/contiki-ng-native.a(gpio-hal-arch.o)
 .comment       0x000000000000002a       0x2b build/native/contiki-ng-native.a(ringbuf.o)
 .comment       0x000000000000002a       0x2b /usr/lib/gcc/x86_64-linux-gnu/9/crtendS.o

.gnu.build.attributes
 *(.gnu.build.attributes .gnu.build.attributes.*)

.debug
 *(.debug)

.line
 *(.line)

.debug_srcinfo
 *(.debug_srcinfo)

.debug_sfnames
 *(.debug_sfnames)

.debug_aranges  0x0000000000000000      0xe00
 *(.debug_aranges)
 .debug_aranges
                0x0000000000000000       0x30 border-router.o
 .debug_aranges
                0x0000000000000030       0x30 build/native/contiki-ng-native.a(webserver.o)
 .debug_aranges
                0x0000000000000060       0x30 build/native/contiki-ng-native.a(contiki-main.o)
 .debug_aranges
                0x0000000000000090       0x30 build/native/contiki-ng-native.a(autostart.o)
 .debug_aranges
                0x00000000000000c0       0x30 build/native/contiki-ng-native.a(ctimer.o)
 .debug_aranges
                0x00000000000000f0       0x30 build/native/contiki-ng-native.a(log.o)
 .debug_aranges
                0x0000000000000120       0x30 build/native/contiki-ng-native.a(energest.o)
 .debug_aranges
                0x0000000000000150       0x30 build/native/contiki-ng-native.a(etimer.o)
 .debug_aranges
                0x0000000000000180       0x30 build/native/contiki-ng-native.a(node-id.o)
 .debug_aranges
                0x00000000000001b0       0x30 build/native/contiki-ng-native.a(rtimer.o)
 .debug_aranges
                0x00000000000001e0       0x30 build/native/contiki-ng-native.a(process.o)
 .debug_aranges
                0x0000000000000210       0x30 build/native/contiki-ng-native.a(timer.o)
 .debug_aranges
                0x0000000000000240       0x30 build/native/contiki-ng-native.a(list.o)
 .debug_aranges
                0x0000000000000270       0x30 build/native/contiki-ng-native.a(queuebuf.o)
 .debug_aranges
                0x00000000000002a0       0x30 build/native/contiki-ng-native.a(packetbuf.o)
 .debug_aranges
                0x00000000000002d0       0x30 build/native/contiki-ng-native.a(netstack.o)
 .debug_aranges
                0x0000000000000300       0x30 build/native/contiki-ng-native.a(linkaddr.o)
 .debug_aranges
                0x0000000000000330       0x30 build/native/contiki-ng-native.a(uip-sr.o)
 .debug_aranges
                0x0000000000000360       0x30 build/native/contiki-ng-native.a(uip-ds6.o)
 .debug_aranges
                0x0000000000000390       0x30 build/native/contiki-ng-native.a(uip-ds6-route.o)
 .debug_aranges
                0x00000000000003c0       0x30 build/native/contiki-ng-native.a(psock.o)
 .debug_aranges
                0x00000000000003f0       0x30 build/native/contiki-ng-native.a(tcpip.o)
 .debug_aranges
                0x0000000000000420       0x30 build/native/contiki-ng-native.a(uip6.o)
 .debug_aranges
                0x0000000000000450       0x30 build/native/contiki-ng-native.a(uip-ds6-nbr.o)
 .debug_aranges
                0x0000000000000480       0x30 build/native/contiki-ng-native.a(uip-nd6.o)
 .debug_aranges
                0x00000000000004b0       0x30 build/native/contiki-ng-native.a(simple-udp.o)
 .debug_aranges
                0x00000000000004e0       0x30 build/native/contiki-ng-native.a(sicslowpan.o)
 .debug_aranges
                0x0000000000000510       0x30 build/native/contiki-ng-native.a(uiplib.o)
 .debug_aranges
                0x0000000000000540       0x30 build/native/contiki-ng-native.a(rpl.o)
 .debug_aranges
                0x0000000000000570       0x30 build/native/contiki-ng-native.a(rpl-icmp6.o)
 .debug_aranges
                0x00000000000005a0       0x30 build/native/contiki-ng-native.a(rpl-dag-root.o)
 .debug_aranges
                0x00000000000005d0       0x30 build/native/contiki-ng-native.a(tun-bridge.o)
 .debug_aranges
                0x0000000000000600       0x30 build/native/contiki-ng-native.a(slip-dev.o)
 .debug_aranges
                0x0000000000000630       0x30 build/native/contiki-ng-native.a(slip-config.o)
 .debug_aranges
                0x0000000000000660       0x30 build/native/contiki-ng-native.a(border-router-m)
 .debug_aranges
                0x0000000000000690       0x30 build/native/contiki-ng-native.a(border-router-c)
 .debug_aranges
                0x00000000000006c0       0x30 build/native/contiki-ng-native.a(cmd.o)
 .debug_aranges
                0x00000000000006f0       0x30 build/native/contiki-ng-native.a(packetutils.o)
 .debug_aranges
                0x0000000000000720       0x30 build/native/contiki-ng-native.a(shell.o)
 .debug_aranges
                0x0000000000000750       0x30 build/native/contiki-ng-native.a(shell-commands.)
 .debug_aranges
                0x0000000000000780       0x30 build/native/contiki-ng-native.a(serial-shell.o)
 .debug_aranges
                0x00000000000007b0       0x30 build/native/contiki-ng-native.a(platform.o)
 .debug_aranges
                0x00000000000007e0       0x30 build/native/contiki-ng-native.a(clock.o)
 .debug_aranges
                0x0000000000000810       0x30 build/native/contiki-ng-native.a(rtimer-arch.o)
 .debug_aranges
                0x0000000000000840       0x30 build/native/contiki-ng-native.a(watchdog.o)
 .debug_aranges
                0x0000000000000870       0x30 build/native/contiki-ng-native.a(httpd-simple.o)
 .debug_aranges
                0x00000000000008a0       0x30 build/native/contiki-ng-native.a(rpl-border-rout)
 .debug_aranges
                0x00000000000008d0       0x30 build/native/contiki-ng-native.a(stimer.o)
 .debug_aranges
                0x0000000000000900       0x30 build/native/contiki-ng-native.a(memb.o)
 .debug_aranges
                0x0000000000000930       0x30 build/native/contiki-ng-native.a(random.o)
 .debug_aranges
                0x0000000000000960       0x30 build/native/contiki-ng-native.a(button-hal.o)
 .debug_aranges
                0x0000000000000990       0x30 build/native/contiki-ng-native.a(serial-line.o)
 .debug_aranges
                0x00000000000009c0       0x30 build/native/contiki-ng-native.a(leds.o)
 .debug_aranges
                0x00000000000009f0       0x30 build/native/contiki-ng-native.a(nullradio.o)
 .debug_aranges
                0x0000000000000a20       0x30 build/native/contiki-ng-native.a(gpio-hal.o)
 .debug_aranges
                0x0000000000000a50       0x30 build/native/contiki-ng-native.a(nbr-table.o)
 .debug_aranges
                0x0000000000000a80       0x30 build/native/contiki-ng-native.a(link-stats.o)
 .debug_aranges
                0x0000000000000ab0       0x30 build/native/contiki-ng-native.a(mac.o)
 .debug_aranges
                0x0000000000000ae0       0x30 build/native/contiki-ng-native.a(framer-802154.o)
 .debug_aranges
                0x0000000000000b10       0x30 build/native/contiki-ng-native.a(frame802154.o)
 .debug_aranges
                0x0000000000000b40       0x30 build/native/contiki-ng-native.a(uipbuf.o)
 .debug_aranges
                0x0000000000000b70       0x30 build/native/contiki-ng-native.a(uip-icmp6.o)
 .debug_aranges
                0x0000000000000ba0       0x30 build/native/contiki-ng-native.a(uip-packetqueue)
 .debug_aranges
                0x0000000000000bd0       0x30 build/native/contiki-ng-native.a(uip-udp-packet.)
 .debug_aranges
                0x0000000000000c00       0x30 build/native/contiki-ng-native.a(rpl-nbr-policy.)
 .debug_aranges
                0x0000000000000c30       0x30 build/native/contiki-ng-native.a(rpl-neighbor.o)
 .debug_aranges
                0x0000000000000c60       0x30 build/native/contiki-ng-native.a(rpl-dag.o)
 .debug_aranges
                0x0000000000000c90       0x30 build/native/contiki-ng-native.a(rpl-timers.o)
 .debug_aranges
                0x0000000000000cc0       0x30 build/native/contiki-ng-native.a(rpl-ext-header.)
 .debug_aranges
                0x0000000000000cf0       0x30 build/native/contiki-ng-native.a(rpl-mrhof.o)
 .debug_aranges
                0x0000000000000d20       0x30 build/native/contiki-ng-native.a(border-router-n)
 .debug_aranges
                0x0000000000000d50       0x20 build/native/contiki-ng-native.a(buttons.o)
 .debug_aranges
                0x0000000000000d70       0x30 build/native/contiki-ng-native.a(int-master.o)
 .debug_aranges
                0x0000000000000da0       0x30 build/native/contiki-ng-native.a(gpio-hal-arch.o)
 .debug_aranges
                0x0000000000000dd0       0x30 build/native/contiki-ng-native.a(ringbuf.o)

.debug_pubnames
 *(.debug_pubnames)

.debug_info     0x0000000000000000    0x64e09
 *(.debug_info .gnu.linkonce.wi.*)
 .debug_info    0x0000000000000000      0xb51 border-router.o
 .debug_info    0x0000000000000b51     0x292e build/native/contiki-ng-native.a(webserver.o)
 .debug_info    0x000000000000347f     0x2dbf build/native/contiki-ng-native.a(contiki-main.o)
 .debug_info    0x000000000000623e      0x255 build/native/contiki-ng-native.a(autostart.o)
 .debug_info    0x0000000000006493      0x85a build/native/contiki-ng-native.a(ctimer.o)
 .debug_info    0x0000000000006ced     0x11bf build/native/contiki-ng-native.a(log.o)
 .debug_info    0x0000000000007eac      0x1e9 build/native/contiki-ng-native.a(energest.o)
 .debug_info    0x0000000000008095      0x9bb build/native/contiki-ng-native.a(etimer.o)
 .debug_info    0x0000000000008a50      0x62d build/native/contiki-ng-native.a(node-id.o)
 .debug_info    0x000000000000907d      0x37b build/native/contiki-ng-native.a(rtimer.o)
 .debug_info    0x00000000000093f8      0xc7d build/native/contiki-ng-native.a(process.o)
 .debug_info    0x000000000000a075      0x388 build/native/contiki-ng-native.a(timer.o)
 .debug_info    0x000000000000a3fd      0x74f build/native/contiki-ng-native.a(list.o)
 .debug_info    0x000000000000ab4c     0x19d1 build/native/contiki-ng-native.a(queuebuf.o)
 .debug_info    0x000000000000c51d     0x1c06 build/native/contiki-ng-native.a(packetbuf.o)
 .debug_info    0x000000000000e123      0x844 build/native/contiki-ng-native.a(netstack.o)
 .debug_info    0x000000000000e967      0x408 build/native/contiki-ng-native.a(linkaddr.o)
 .debug_info    0x000000000000ed6f     0x1fc8 build/native/contiki-ng-native.a(uip-sr.o)
 .debug_info    0x0000000000010d37     0x2605 build/native/contiki-ng-native.a(uip-ds6.o)
 .debug_info    0x000000000001333c     0x1a76 build/native/contiki-ng-native.a(uip-ds6-route.o)
 .debug_info    0x0000000000014db2     0x1a6c build/native/contiki-ng-native.a(psock.o)
 .debug_info    0x000000000001681e     0x2a9b build/native/contiki-ng-native.a(tcpip.o)
 .debug_info    0x00000000000192b9     0x2cad build/native/contiki-ng-native.a(uip6.o)
 .debug_info    0x000000000001bf66     0x1f30 build/native/contiki-ng-native.a(uip-ds6-nbr.o)
 .debug_info    0x000000000001de96     0x18e0 build/native/contiki-ng-native.a(uip-nd6.o)
 .debug_info    0x000000000001f776     0x1857 build/native/contiki-ng-native.a(simple-udp.o)
 .debug_info    0x0000000000020fcd     0x3d86 build/native/contiki-ng-native.a(sicslowpan.o)
 .debug_info    0x0000000000024d53     0x10bd build/native/contiki-ng-native.a(uiplib.o)
 .debug_info    0x0000000000025e10     0x23eb build/native/contiki-ng-native.a(rpl.o)
 .debug_info    0x00000000000281fb     0x3a25 build/native/contiki-ng-native.a(rpl-icmp6.o)
 .debug_info    0x000000000002bc20     0x1fb6 build/native/contiki-ng-native.a(rpl-dag-root.o)
 .debug_info    0x000000000002dbd6     0x26b8 build/native/contiki-ng-native.a(tun-bridge.o)
 .debug_info    0x000000000003028e     0x2949 build/native/contiki-ng-native.a(slip-dev.o)
 .debug_info    0x0000000000032bd7     0x114e build/native/contiki-ng-native.a(slip-config.o)
 .debug_info    0x0000000000033d25     0x13dc build/native/contiki-ng-native.a(border-router-m)
 .debug_info    0x0000000000035101     0x1b43 build/native/contiki-ng-native.a(border-router-c)
 .debug_info    0x0000000000036c44      0x2d7 build/native/contiki-ng-native.a(cmd.o)
 .debug_info    0x0000000000036f1b      0xa37 build/native/contiki-ng-native.a(packetutils.o)
 .debug_info    0x0000000000037952     0x2859 build/native/contiki-ng-native.a(shell.o)
 .debug_info    0x000000000003a1ab     0x60a7 build/native/contiki-ng-native.a(shell-commands.)
 .debug_info    0x0000000000040252      0xb4f build/native/contiki-ng-native.a(serial-shell.o)
 .debug_info    0x0000000000040da1     0x1df0 build/native/contiki-ng-native.a(platform.o)
 .debug_info    0x0000000000042b91      0x436 build/native/contiki-ng-native.a(clock.o)
 .debug_info    0x0000000000042fc7      0x3f1 build/native/contiki-ng-native.a(rtimer-arch.o)
 .debug_info    0x00000000000433b8       0xf3 build/native/contiki-ng-native.a(watchdog.o)
 .debug_info    0x00000000000434ab     0x1e5f build/native/contiki-ng-native.a(httpd-simple.o)
 .debug_info    0x000000000004530a     0x1843 build/native/contiki-ng-native.a(rpl-border-rout)
 .debug_info    0x0000000000046b4d      0x38c build/native/contiki-ng-native.a(stimer.o)
 .debug_info    0x0000000000046ed9      0x437 build/native/contiki-ng-native.a(memb.o)
 .debug_info    0x0000000000047310      0x22f build/native/contiki-ng-native.a(random.o)
 .debug_info    0x000000000004753f      0xadd build/native/contiki-ng-native.a(button-hal.o)
 .debug_info    0x000000000004801c      0x50e build/native/contiki-ng-native.a(serial-line.o)
 .debug_info    0x000000000004852a      0x383 build/native/contiki-ng-native.a(leds.o)
 .debug_info    0x00000000000488ad      0x5e8 build/native/contiki-ng-native.a(nullradio.o)
 .debug_info    0x0000000000048e95      0xd17 build/native/contiki-ng-native.a(gpio-hal.o)
 .debug_info    0x0000000000049bac     0x1b43 build/native/contiki-ng-native.a(nbr-table.o)
 .debug_info    0x000000000004b6ef     0x16b2 build/native/contiki-ng-native.a(link-stats.o)
 .debug_info    0x000000000004cda1      0xa03 build/native/contiki-ng-native.a(mac.o)
 .debug_info    0x000000000004d7a4     0x1328 build/native/contiki-ng-native.a(framer-802154.o)
 .debug_info    0x000000000004eacc     0x11db build/native/contiki-ng-native.a(frame802154.o)
 .debug_info    0x000000000004fca7      0xdbd build/native/contiki-ng-native.a(uipbuf.o)
 .debug_info    0x0000000000050a64     0x1e62 build/native/contiki-ng-native.a(uip-icmp6.o)
 .debug_info    0x00000000000528c6      0xca9 build/native/contiki-ng-native.a(uip-packetqueue)
 .debug_info    0x000000000005356f      0x8ab build/native/contiki-ng-native.a(uip-udp-packet.)
 .debug_info    0x0000000000053e1a     0x1bf2 build/native/contiki-ng-native.a(rpl-nbr-policy.)
 .debug_info    0x0000000000055a0c     0x299f build/native/contiki-ng-native.a(rpl-neighbor.o)
 .debug_info    0x00000000000583ab     0x2be1 build/native/contiki-ng-native.a(rpl-dag.o)
 .debug_info    0x000000000005af8c     0x255b build/native/contiki-ng-native.a(rpl-timers.o)
 .debug_info    0x000000000005d4e7     0x2922 build/native/contiki-ng-native.a(rpl-ext-header.)
 .debug_info    0x000000000005fe09     0x1cc6 build/native/contiki-ng-native.a(rpl-mrhof.o)
 .debug_info    0x0000000000061acf     0x1d51 build/native/contiki-ng-native.a(border-router-n)
 .debug_info    0x0000000000063820      0x3a0 build/native/contiki-ng-native.a(buttons.o)
 .debug_info    0x0000000000063bc0      0x267 build/native/contiki-ng-native.a(int-master.o)
 .debug_info    0x0000000000063e27      0xcce build/native/contiki-ng-native.a(gpio-hal-arch.o)
 .debug_info    0x0000000000064af5      0x314 build/native/contiki-ng-native.a(ringbuf.o)

.debug_abbrev   0x0000000000000000    0x1058b
 *(.debug_abbrev)
 .debug_abbrev  0x0000000000000000      0x2cc border-router.o
 .debug_abbrev  0x00000000000002cc      0x46d build/native/contiki-ng-native.a(webserver.o)
 .debug_abbrev  0x0000000000000739      0x379 build/native/contiki-ng-native.a(contiki-main.o)
 .debug_abbrev  0x0000000000000ab2      0x164 build/native/contiki-ng-native.a(autostart.o)
 .debug_abbrev  0x0000000000000c16      0x269 build/native/contiki-ng-native.a(ctimer.o)
 .debug_abbrev  0x0000000000000e7f      0x3cc build/native/contiki-ng-native.a(log.o)
 .debug_abbrev  0x000000000000124b      0x13b build/native/contiki-ng-native.a(energest.o)
 .debug_abbrev  0x0000000000001386      0x3a1 build/native/contiki-ng-native.a(etimer.o)
 .debug_abbrev  0x0000000000001727      0x1a4 build/native/contiki-ng-native.a(node-id.o)
 .debug_abbrev  0x00000000000018cb      0x221 build/native/contiki-ng-native.a(rtimer.o)
 .debug_abbrev  0x0000000000001aec      0x44d build/native/contiki-ng-native.a(process.o)
 .debug_abbrev  0x0000000000001f39      0x202 build/native/contiki-ng-native.a(timer.o)
 .debug_abbrev  0x000000000000213b      0x2ee build/native/contiki-ng-native.a(list.o)
 .debug_abbrev  0x0000000000002429      0x36a build/native/contiki-ng-native.a(queuebuf.o)
 .debug_abbrev  0x0000000000002793      0x429 build/native/contiki-ng-native.a(packetbuf.o)
 .debug_abbrev  0x0000000000002bbc      0x29f build/native/contiki-ng-native.a(netstack.o)
 .debug_abbrev  0x0000000000002e5b      0x224 build/native/contiki-ng-native.a(linkaddr.o)
 .debug_abbrev  0x000000000000307f      0x45d build/native/contiki-ng-native.a(uip-sr.o)
 .debug_abbrev  0x00000000000034dc      0x4f6 build/native/contiki-ng-native.a(uip-ds6.o)
 .debug_abbrev  0x00000000000039d2      0x428 build/native/contiki-ng-native.a(uip-ds6-route.o)
 .debug_abbrev  0x0000000000003dfa      0x4c6 build/native/contiki-ng-native.a(psock.o)
 .debug_abbrev  0x00000000000042c0      0x686 build/native/contiki-ng-native.a(tcpip.o)
 .debug_abbrev  0x0000000000004946      0x538 build/native/contiki-ng-native.a(uip6.o)
 .debug_abbrev  0x0000000000004e7e      0x49f build/native/contiki-ng-native.a(uip-ds6-nbr.o)
 .debug_abbrev  0x000000000000531d      0x3c7 build/native/contiki-ng-native.a(uip-nd6.o)
 .debug_abbrev  0x00000000000056e4      0x36d build/native/contiki-ng-native.a(simple-udp.o)
 .debug_abbrev  0x0000000000005a51      0x5df build/native/contiki-ng-native.a(sicslowpan.o)
 .debug_abbrev  0x0000000000006030      0x367 build/native/contiki-ng-native.a(uiplib.o)
 .debug_abbrev  0x0000000000006397      0x4f8 build/native/contiki-ng-native.a(rpl.o)
 .debug_abbrev  0x000000000000688f      0x5de build/native/contiki-ng-native.a(rpl-icmp6.o)
 .debug_abbrev  0x0000000000006e6d      0x466 build/native/contiki-ng-native.a(rpl-dag-root.o)
 .debug_abbrev  0x00000000000072d3      0x58e build/native/contiki-ng-native.a(tun-bridge.o)
 .debug_abbrev  0x0000000000007861      0x650 build/native/contiki-ng-native.a(slip-dev.o)
 .debug_abbrev  0x0000000000007eb1      0x2a9 build/native/contiki-ng-native.a(slip-config.o)
 .debug_abbrev  0x000000000000815a      0x46b build/native/contiki-ng-native.a(border-router-m)
 .debug_abbrev  0x00000000000085c5      0x437 build/native/contiki-ng-native.a(border-router-c)
 .debug_abbrev  0x00000000000089fc      0x183 build/native/contiki-ng-native.a(cmd.o)
 .debug_abbrev  0x0000000000008b7f      0x228 build/native/contiki-ng-native.a(packetutils.o)
 .debug_abbrev  0x0000000000008da7      0x492 build/native/contiki-ng-native.a(shell.o)
 .debug_abbrev  0x0000000000009239      0x5e4 build/native/contiki-ng-native.a(shell-commands.)
 .debug_abbrev  0x000000000000981d      0x2fa build/native/contiki-ng-native.a(serial-shell.o)
 .debug_abbrev  0x0000000000009b17      0x54e build/native/contiki-ng-native.a(platform.o)
 .debug_abbrev  0x000000000000a065      0x234 build/native/contiki-ng-native.a(clock.o)
 .debug_abbrev  0x000000000000a299      0x203 build/native/contiki-ng-native.a(rtimer-arch.o)
 .debug_abbrev  0x000000000000a49c       0xa4 build/native/contiki-ng-native.a(watchdog.o)
 .debug_abbrev  0x000000000000a540      0x40d build/native/contiki-ng-native.a(httpd-simple.o)
 .debug_abbrev  0x000000000000a94d      0x350 build/native/contiki-ng-native.a(rpl-border-rout)
 .debug_abbrev  0x000000000000ac9d      0x1e5 build/native/contiki-ng-native.a(stimer.o)
 .debug_abbrev  0x000000000000ae82      0x231 build/native/contiki-ng-native.a(memb.o)
 .debug_abbrev  0x000000000000b0b3      0x171 build/native/contiki-ng-native.a(random.o)
 .debug_abbrev  0x000000000000b224      0x335 build/native/contiki-ng-native.a(button-hal.o)
 .debug_abbrev  0x000000000000b559      0x26d build/native/contiki-ng-native.a(serial-line.o)
 .debug_abbrev  0x000000000000b7c6      0x1e6 build/native/contiki-ng-native.a(leds.o)
 .debug_abbrev  0x000000000000b9ac      0x200 build/native/contiki-ng-native.a(nullradio.o)
 .debug_abbrev  0x000000000000bbac      0x294 build/native/contiki-ng-native.a(gpio-hal.o)
 .debug_abbrev  0x000000000000be40      0x4b3 build/native/contiki-ng-native.a(nbr-table.o)
 .debug_abbrev  0x000000000000c2f3      0x3ee build/native/contiki-ng-native.a(link-stats.o)
 .debug_abbrev  0x000000000000c6e1      0x1f7 build/native/contiki-ng-native.a(mac.o)
 .debug_abbrev  0x000000000000c8d8      0x34b build/native/contiki-ng-native.a(framer-802154.o)
 .debug_abbrev  0x000000000000cc23      0x48d build/native/contiki-ng-native.a(frame802154.o)
 .debug_abbrev  0x000000000000d0b0      0x353 build/native/contiki-ng-native.a(uipbuf.o)
 .debug_abbrev  0x000000000000d403      0x4a7 build/native/contiki-ng-native.a(uip-icmp6.o)
 .debug_abbrev  0x000000000000d8aa      0x2c1 build/native/contiki-ng-native.a(uip-packetqueue)
 .debug_abbrev  0x000000000000db6b      0x292 build/native/contiki-ng-native.a(uip-udp-packet.)
 .debug_abbrev  0x000000000000ddfd      0x38b build/native/contiki-ng-native.a(rpl-nbr-policy.)
 .debug_abbrev  0x000000000000e188      0x5e3 build/native/contiki-ng-native.a(rpl-neighbor.o)
 .debug_abbrev  0x000000000000e76b      0x610 build/native/contiki-ng-native.a(rpl-dag.o)
 .debug_abbrev  0x000000000000ed7b      0x4c0 build/native/contiki-ng-native.a(rpl-timers.o)
 .debug_abbrev  0x000000000000f23b      0x4d4 build/native/contiki-ng-native.a(rpl-ext-header.)
 .debug_abbrev  0x000000000000f70f      0x391 build/native/contiki-ng-native.a(rpl-mrhof.o)
 .debug_abbrev  0x000000000000faa0      0x3ea build/native/contiki-ng-native.a(border-router-n)
 .debug_abbrev  0x000000000000fe8a      0x13d build/native/contiki-ng-native.a(buttons.o)
 .debug_abbrev  0x000000000000ffc7      0x191 build/native/contiki-ng-native.a(int-master.o)
 .debug_abbrev  0x0000000000010158      0x2a4 build/native/contiki-ng-native.a(gpio-hal-arch.o)
 .debug_abbrev  0x00000000000103fc      0x18f build/native/contiki-ng-native.a(ringbuf.o)

.debug_line     0x0000000000000000    0x1eef4
 *(.debug_line .debug_line.* .debug_line_end)
 .debug_line    0x0000000000000000      0x2e5 border-router.o
 .debug_line    0x00000000000002e5      0xb67 build/native/contiki-ng-native.a(webserver.o)
 .debug_line    0x0000000000000e4c      0x881 build/native/contiki-ng-native.a(contiki-main.o)
 .debug_line    0x00000000000016cd      0x11d build/native/contiki-ng-native.a(autostart.o)
 .debug_line    0x00000000000017ea      0x3f5 build/native/contiki-ng-native.a(ctimer.o)
 .debug_line    0x0000000000001bdf      0x520 build/native/contiki-ng-native.a(log.o)
 .debug_line    0x00000000000020ff       0xd9 build/native/contiki-ng-native.a(energest.o)
 .debug_line    0x00000000000021d8      0x51f build/native/contiki-ng-native.a(etimer.o)
 .debug_line    0x00000000000026f7      0x12c build/native/contiki-ng-native.a(node-id.o)
 .debug_line    0x0000000000002823      0x190 build/native/contiki-ng-native.a(rtimer.o)
 .debug_line    0x00000000000029b3      0x624 build/native/contiki-ng-native.a(process.o)
 .debug_line    0x0000000000002fd7      0x17e build/native/contiki-ng-native.a(timer.o)
 .debug_line    0x0000000000003155      0x504 build/native/contiki-ng-native.a(list.o)
 .debug_line    0x0000000000003659      0x4e2 build/native/contiki-ng-native.a(queuebuf.o)
 .debug_line    0x0000000000003b3b      0x6f4 build/native/contiki-ng-native.a(packetbuf.o)
 .debug_line    0x000000000000422f      0x259 build/native/contiki-ng-native.a(netstack.o)
 .debug_line    0x0000000000004488      0x182 build/native/contiki-ng-native.a(linkaddr.o)
 .debug_line    0x000000000000460a      0x7f4 build/native/contiki-ng-native.a(uip-sr.o)
 .debug_line    0x0000000000004dfe      0xe0e build/native/contiki-ng-native.a(uip-ds6.o)
 .debug_line    0x0000000000005c0c      0x661 build/native/contiki-ng-native.a(uip-ds6-route.o)
 .debug_line    0x000000000000626d      0x9be build/native/contiki-ng-native.a(psock.o)
 .debug_line    0x0000000000006c2b      0xacb build/native/contiki-ng-native.a(tcpip.o)
 .debug_line    0x00000000000076f6     0x1cf3 build/native/contiki-ng-native.a(uip6.o)
 .debug_line    0x00000000000093e9      0x697 build/native/contiki-ng-native.a(uip-ds6-nbr.o)
 .debug_line    0x0000000000009a80      0x600 build/native/contiki-ng-native.a(uip-nd6.o)
 .debug_line    0x000000000000a080      0x541 build/native/contiki-ng-native.a(simple-udp.o)
 .debug_line    0x000000000000a5c1     0x1fee build/native/contiki-ng-native.a(sicslowpan.o)
 .debug_line    0x000000000000c5af      0x6c9 build/native/contiki-ng-native.a(uiplib.o)
 .debug_line    0x000000000000cc78      0x7a3 build/native/contiki-ng-native.a(rpl.o)
 .debug_line    0x000000000000d41b     0x17a4 build/native/contiki-ng-native.a(rpl-icmp6.o)
 .debug_line    0x000000000000ebbf      0x578 build/native/contiki-ng-native.a(rpl-dag-root.o)
 .debug_line    0x000000000000f137      0x883 build/native/contiki-ng-native.a(tun-bridge.o)
 .debug_line    0x000000000000f9ba      0xe11 build/native/contiki-ng-native.a(slip-dev.o)
 .debug_line    0x00000000000107cb      0x620 build/native/contiki-ng-native.a(slip-config.o)
 .debug_line    0x0000000000010deb      0x490 build/native/contiki-ng-native.a(border-router-m)
 .debug_line    0x000000000001127b      0xa2f build/native/contiki-ng-native.a(border-router-c)
 .debug_line    0x0000000000011caa      0x14b build/native/contiki-ng-native.a(cmd.o)
 .debug_line    0x0000000000011df5      0x351 build/native/contiki-ng-native.a(packetutils.o)
 .debug_line    0x0000000000012146      0x737 build/native/contiki-ng-native.a(shell.o)
 .debug_line    0x000000000001287d     0x1ca1 build/native/contiki-ng-native.a(shell-commands.)
 .debug_line    0x000000000001451e      0x2d4 build/native/contiki-ng-native.a(serial-shell.o)
 .debug_line    0x00000000000147f2      0x75a build/native/contiki-ng-native.a(platform.o)
 .debug_line    0x0000000000014f4c      0x1da build/native/contiki-ng-native.a(clock.o)
 .debug_line    0x0000000000015126      0x1f4 build/native/contiki-ng-native.a(rtimer-arch.o)
 .debug_line    0x000000000001531a       0x84 build/native/contiki-ng-native.a(watchdog.o)
 .debug_line    0x000000000001539e      0x826 build/native/contiki-ng-native.a(httpd-simple.o)
 .debug_line    0x0000000000015bc4      0x49e build/native/contiki-ng-native.a(rpl-border-rout)
 .debug_line    0x0000000000016062      0x15d build/native/contiki-ng-native.a(stimer.o)
 .debug_line    0x00000000000161bf      0x2e9 build/native/contiki-ng-native.a(memb.o)
 .debug_line    0x00000000000164a8       0xd5 build/native/contiki-ng-native.a(random.o)
 .debug_line    0x000000000001657d      0x4dc build/native/contiki-ng-native.a(button-hal.o)
 .debug_line    0x0000000000016a59      0x287 build/native/contiki-ng-native.a(serial-line.o)
 .debug_line    0x0000000000016ce0      0x131 build/native/contiki-ng-native.a(leds.o)
 .debug_line    0x0000000000016e11      0x127 build/native/contiki-ng-native.a(nullradio.o)
 .debug_line    0x0000000000016f38      0x306 build/native/contiki-ng-native.a(gpio-hal.o)
 .debug_line    0x000000000001723e      0x99c build/native/contiki-ng-native.a(nbr-table.o)
 .debug_line    0x0000000000017bda      0x609 build/native/contiki-ng-native.a(link-stats.o)
 .debug_line    0x00000000000181e3      0x1e1 build/native/contiki-ng-native.a(mac.o)
 .debug_line    0x00000000000183c4      0x4f2 build/native/contiki-ng-native.a(framer-802154.o)
 .debug_line    0x00000000000188b6      0x92f build/native/contiki-ng-native.a(frame802154.o)
 .debug_line    0x00000000000191e5      0x4e2 build/native/contiki-ng-native.a(uipbuf.o)
 .debug_line    0x00000000000196c7      0x7a2 build/native/contiki-ng-native.a(uip-icmp6.o)
 .debug_line    0x0000000000019e69      0x305 build/native/contiki-ng-native.a(uip-packetqueue)
 .debug_line    0x000000000001a16e      0x23d build/native/contiki-ng-native.a(uip-udp-packet.)
 .debug_line    0x000000000001a3ab      0x45e build/native/contiki-ng-native.a(rpl-nbr-policy.)
 .debug_line    0x000000000001a809      0xc58 build/native/contiki-ng-native.a(rpl-neighbor.o)
 .debug_line    0x000000000001b461      0xd8d build/native/contiki-ng-native.a(rpl-dag.o)
 .debug_line    0x000000000001c1ee      0xa49 build/native/contiki-ng-native.a(rpl-timers.o)
 .debug_line    0x000000000001cc37      0xd62 build/native/contiki-ng-native.a(rpl-ext-header.)
 .debug_line    0x000000000001d999      0x636 build/native/contiki-ng-native.a(rpl-mrhof.o)
 .debug_line    0x000000000001dfcf      0x6cd build/native/contiki-ng-native.a(border-router-n)
 .debug_line    0x000000000001e69c      0x146 build/native/contiki-ng-native.a(buttons.o)
 .debug_line    0x000000000001e7e2      0x134 build/native/contiki-ng-native.a(int-master.o)
 .debug_line    0x000000000001e916      0x419 build/native/contiki-ng-native.a(gpio-hal-arch.o)
 .debug_line    0x000000000001ed2f      0x1c5 build/native/contiki-ng-native.a(ringbuf.o)

.debug_frame
 *(.debug_frame)

.debug_str      0x0000000000000000     0x7fae
 *(.debug_str)
 .debug_str     0x0000000000000000      0x67d border-router.o
                                        0x7b4 (size before relaxing)
 .debug_str     0x000000000000067d      0xa5a build/native/contiki-ng-native.a(webserver.o)
                                       0x145b (size before relaxing)
 .debug_str     0x00000000000010d7      0xda2 build/native/contiki-ng-native.a(contiki-main.o)
                                       0x1ecb (size before relaxing)
 .debug_str     0x0000000000001e79       0x35 build/native/contiki-ng-native.a(autostart.o)
                                        0x21b (size before relaxing)
 .debug_str     0x0000000000001eae      0x114 build/native/contiki-ng-native.a(ctimer.o)
                                        0x36a (size before relaxing)
 .debug_str     0x0000000000001fc2       0xb4 build/native/contiki-ng-native.a(log.o)
                                        0x87d (size before relaxing)
 .debug_str     0x0000000000002076       0x3f build/native/contiki-ng-native.a(energest.o)
                                        0x21f (size before relaxing)
 .debug_str     0x00000000000020b5      0x133 build/native/contiki-ng-native.a(etimer.o)
                                        0x3ac (size before relaxing)
 .debug_str     0x00000000000021e8       0x17 build/native/contiki-ng-native.a(node-id.o)
                                        0x43a (size before relaxing)
 .debug_str     0x00000000000021ff       0xcb build/native/contiki-ng-native.a(rtimer.o)
                                        0x2c9 (size before relaxing)
 .debug_str     0x00000000000022ca      0x105 build/native/contiki-ng-native.a(process.o)
                                        0x4db (size before relaxing)
 .debug_str     0x00000000000023cf       0x15 build/native/contiki-ng-native.a(timer.o)
                                        0x247 (size before relaxing)
 .debug_str     0x00000000000023e4       0x8b build/native/contiki-ng-native.a(list.o)
                                        0x28e (size before relaxing)
 .debug_str     0x000000000000246f      0x3df build/native/contiki-ng-native.a(queuebuf.o)
                                        0xf31 (size before relaxing)
 .debug_str     0x000000000000284e      0x196 build/native/contiki-ng-native.a(packetbuf.o)
                                        0xf52 (size before relaxing)
 .debug_str     0x00000000000029e4      0x159 build/native/contiki-ng-native.a(netstack.o)
                                        0x5a8 (size before relaxing)
 .debug_str     0x0000000000002b3d       0x3b build/native/contiki-ng-native.a(linkaddr.o)
                                        0x27a (size before relaxing)
 .debug_str     0x0000000000002b78      0x13b build/native/contiki-ng-native.a(uip-sr.o)
                                        0xf34 (size before relaxing)
 .debug_str     0x0000000000002cb3      0x348 build/native/contiki-ng-native.a(uip-ds6.o)
                                        0xf23 (size before relaxing)
 .debug_str     0x0000000000002ffb      0x1ef build/native/contiki-ng-native.a(uip-ds6-route.o)
                                        0xf3c (size before relaxing)
 .debug_str     0x00000000000031ea       0xd3 build/native/contiki-ng-native.a(psock.o)
                                        0xc9a (size before relaxing)
 .debug_str     0x00000000000032bd      0x431 build/native/contiki-ng-native.a(tcpip.o)
                                       0x14d1 (size before relaxing)
 .debug_str     0x00000000000036ee      0x364 build/native/contiki-ng-native.a(uip6.o)
                                       0x13ed (size before relaxing)
 .debug_str     0x0000000000003a52      0x21f build/native/contiki-ng-native.a(uip-ds6-nbr.o)
                                       0x11f0 (size before relaxing)
 .debug_str     0x0000000000003c71      0x140 build/native/contiki-ng-native.a(uip-nd6.o)
                                        0xf66 (size before relaxing)
 .debug_str     0x0000000000003db1       0xa1 build/native/contiki-ng-native.a(simple-udp.o)
                                        0xd56 (size before relaxing)
 .debug_str     0x0000000000003e52      0x60f build/native/contiki-ng-native.a(sicslowpan.o)
                                       0x1955 (size before relaxing)
 .debug_str     0x0000000000004461       0x62 build/native/contiki-ng-native.a(uiplib.o)
                                        0x846 (size before relaxing)
 .debug_str     0x00000000000044c3      0x19b build/native/contiki-ng-native.a(rpl.o)
                                       0x14bb (size before relaxing)
 .debug_str     0x000000000000465e      0x340 build/native/contiki-ng-native.a(rpl-icmp6.o)
                                       0x188c (size before relaxing)
 .debug_str     0x000000000000499e       0xb3 build/native/contiki-ng-native.a(rpl-dag-root.o)
                                       0x13f5 (size before relaxing)
 .debug_str     0x0000000000004a51      0x508 build/native/contiki-ng-native.a(tun-bridge.o)
                                       0x118e (size before relaxing)
 .debug_str     0x0000000000004f59      0x525 build/native/contiki-ng-native.a(slip-dev.o)
                                        0xf84 (size before relaxing)
 .debug_str     0x000000000000547e       0xa5 build/native/contiki-ng-native.a(slip-config.o)
                                        0x5c4 (size before relaxing)
 .debug_str     0x0000000000005523       0xbc build/native/contiki-ng-native.a(border-router-m)
                                        0xcd8 (size before relaxing)
 .debug_str     0x00000000000055df      0x3b5 build/native/contiki-ng-native.a(border-router-c)
                                       0x1107 (size before relaxing)
 .debug_str     0x0000000000005994       0x3c build/native/contiki-ng-native.a(cmd.o)
                                        0x246 (size before relaxing)
 .debug_str     0x00000000000059d0       0x46 build/native/contiki-ng-native.a(packetutils.o)
                                        0x7f6 (size before relaxing)
 .debug_str     0x0000000000005a16       0xcc build/native/contiki-ng-native.a(shell.o)
                                       0x192f (size before relaxing)
 .debug_str     0x0000000000005ae2      0x321 build/native/contiki-ng-native.a(shell-commands.)
                                       0x1e58 (size before relaxing)
 .debug_str     0x0000000000005e03       0x4b build/native/contiki-ng-native.a(serial-shell.o)
                                        0x81c (size before relaxing)
 .debug_str     0x0000000000005e4e      0x16a build/native/contiki-ng-native.a(platform.o)
                                        0xf7c (size before relaxing)
 .debug_str     0x0000000000005fb8       0x8d build/native/contiki-ng-native.a(clock.o)
                                        0x2e1 (size before relaxing)
 .debug_str     0x0000000000006045       0x8f build/native/contiki-ng-native.a(rtimer-arch.o)
                                        0x341 (size before relaxing)
 .debug_str     0x00000000000060d4       0x31 build/native/contiki-ng-native.a(watchdog.o)
                                        0x1cb (size before relaxing)
 .debug_str     0x0000000000006105       0xe2 build/native/contiki-ng-native.a(httpd-simple.o)
                                        0xf5f (size before relaxing)
 .debug_str     0x00000000000061e7       0x5c build/native/contiki-ng-native.a(rpl-border-rout)
                                        0xf05 (size before relaxing)
 .debug_str     0x0000000000006243       0x52 build/native/contiki-ng-native.a(stimer.o)
                                        0x24e (size before relaxing)
 .debug_str     0x0000000000006295       0x33 build/native/contiki-ng-native.a(memb.o)
                                        0x25e (size before relaxing)
 .debug_str     0x00000000000062c8       0x2d build/native/contiki-ng-native.a(random.o)
                                        0x221 (size before relaxing)
 .debug_str     0x00000000000062f5      0x323 build/native/contiki-ng-native.a(button-hal.o)
                                        0x664 (size before relaxing)
 .debug_str     0x0000000000006618       0x94 build/native/contiki-ng-native.a(serial-line.o)
                                        0x31a (size before relaxing)
 .debug_str     0x00000000000066ac       0xa9 build/native/contiki-ng-native.a(leds.o)
                                        0x2b6 (size before relaxing)
 .debug_str     0x0000000000006755       0x6c build/native/contiki-ng-native.a(nullradio.o)
                                        0x540 (size before relaxing)
 .debug_str     0x00000000000067c1      0x146 build/native/contiki-ng-native.a(gpio-hal.o)
                                        0x93a (size before relaxing)
 .debug_str     0x0000000000006907      0x204 build/native/contiki-ng-native.a(nbr-table.o)
                                        0x8d8 (size before relaxing)
 .debug_str     0x0000000000006b0b       0xe8 build/native/contiki-ng-native.a(link-stats.o)
                                        0xeb8 (size before relaxing)
 .debug_str     0x0000000000006bf3       0x1e build/native/contiki-ng-native.a(mac.o)
                                        0x766 (size before relaxing)
 .debug_str     0x0000000000006c11      0x29e build/native/contiki-ng-native.a(framer-802154.o)
                                        0xcc5 (size before relaxing)
 .debug_str     0x0000000000006eaf      0x185 build/native/contiki-ng-native.a(frame802154.o)
                                        0x86a (size before relaxing)
 .debug_str     0x0000000000007034      0x107 build/native/contiki-ng-native.a(uipbuf.o)
                                        0x736 (size before relaxing)
 .debug_str     0x000000000000713b      0x110 build/native/contiki-ng-native.a(uip-icmp6.o)
                                       0x119c (size before relaxing)
 .debug_str     0x000000000000724b       0x9f build/native/contiki-ng-native.a(uip-packetqueue)
                                        0x7ab (size before relaxing)
 .debug_str     0x00000000000072ea       0x55 build/native/contiki-ng-native.a(uip-udp-packet.)
                                        0x520 (size before relaxing)
 .debug_str     0x000000000000733f       0xb7 build/native/contiki-ng-native.a(rpl-nbr-policy.)
                                       0x1331 (size before relaxing)
 .debug_str     0x00000000000073f6      0x1f9 build/native/contiki-ng-native.a(rpl-neighbor.o)
                                       0x1514 (size before relaxing)
 .debug_str     0x00000000000075ef      0x35b build/native/contiki-ng-native.a(rpl-dag.o)
                                       0x17a2 (size before relaxing)
 .debug_str     0x000000000000794a      0x1a0 build/native/contiki-ng-native.a(rpl-timers.o)
                                       0x14ce (size before relaxing)
 .debug_str     0x0000000000007aea      0x1c0 build/native/contiki-ng-native.a(rpl-ext-header.)
                                       0x1846 (size before relaxing)
 .debug_str     0x0000000000007caa       0xbf build/native/contiki-ng-native.a(rpl-mrhof.o)
                                       0x109d (size before relaxing)
 .debug_str     0x0000000000007d69       0x7b build/native/contiki-ng-native.a(border-router-n)
                                       0x10e5 (size before relaxing)
 .debug_str     0x0000000000007de4       0x29 build/native/contiki-ng-native.a(buttons.o)
                                        0x363 (size before relaxing)
 .debug_str     0x0000000000007e0d       0x4d build/native/contiki-ng-native.a(int-master.o)
                                        0x277 (size before relaxing)
 .debug_str     0x0000000000007e5a      0x11f build/native/contiki-ng-native.a(gpio-hal-arch.o)
                                        0x966 (size before relaxing)
 .debug_str     0x0000000000007f79       0x35 build/native/contiki-ng-native.a(ringbuf.o)
                                        0x259 (size before relaxing)

.debug_loc      0x0000000000000000    0x2d768
 *(.debug_loc)
 .debug_loc     0x0000000000000000      0x18c border-router.o
 .debug_loc     0x000000000000018c      0xda0 build/native/contiki-ng-native.a(webserver.o)
 .debug_loc     0x0000000000000f2c      0x42b build/native/contiki-ng-native.a(contiki-main.o)
 .debug_loc     0x0000000000001357      0x146 build/native/contiki-ng-native.a(autostart.o)
 .debug_loc     0x000000000000149d      0x8d0 build/native/contiki-ng-native.a(ctimer.o)
 .debug_loc     0x0000000000001d6d      0x851 build/native/contiki-ng-native.a(log.o)
 .debug_loc     0x00000000000025be      0x911 build/native/contiki-ng-native.a(etimer.o)
 .debug_loc     0x0000000000002ecf      0x1af build/native/contiki-ng-native.a(rtimer.o)
 .debug_loc     0x000000000000307e      0xb44 build/native/contiki-ng-native.a(process.o)
 .debug_loc     0x0000000000003bc2      0x26a build/native/contiki-ng-native.a(timer.o)
 .debug_loc     0x0000000000003e2c      0x99a build/native/contiki-ng-native.a(list.o)
 .debug_loc     0x00000000000047c6      0x405 build/native/contiki-ng-native.a(queuebuf.o)
 .debug_loc     0x0000000000004bcb      0x6ce build/native/contiki-ng-native.a(packetbuf.o)
 .debug_loc     0x0000000000005299      0x297 build/native/contiki-ng-native.a(netstack.o)
 .debug_loc     0x0000000000005530      0x13c build/native/contiki-ng-native.a(linkaddr.o)
 .debug_loc     0x000000000000566c     0x1262 build/native/contiki-ng-native.a(uip-sr.o)
 .debug_loc     0x00000000000068ce     0x2393 build/native/contiki-ng-native.a(uip-ds6.o)
 .debug_loc     0x0000000000008c61      0x595 build/native/contiki-ng-native.a(uip-ds6-route.o)
 .debug_loc     0x00000000000091f6      0xba7 build/native/contiki-ng-native.a(psock.o)
 .debug_loc     0x0000000000009d9d     0x13dd build/native/contiki-ng-native.a(tcpip.o)
 .debug_loc     0x000000000000b17a     0x177d build/native/contiki-ng-native.a(uip6.o)
 .debug_loc     0x000000000000c8f7      0x878 build/native/contiki-ng-native.a(uip-ds6-nbr.o)
 .debug_loc     0x000000000000d16f      0x2a5 build/native/contiki-ng-native.a(uip-nd6.o)
 .debug_loc     0x000000000000d414      0x9cb build/native/contiki-ng-native.a(simple-udp.o)
 .debug_loc     0x000000000000dddf     0x44fd build/native/contiki-ng-native.a(sicslowpan.o)
 .debug_loc     0x00000000000122dc     0x122c build/native/contiki-ng-native.a(uiplib.o)
 .debug_loc     0x0000000000013508      0xc2e build/native/contiki-ng-native.a(rpl.o)
 .debug_loc     0x0000000000014136     0x2e8b build/native/contiki-ng-native.a(rpl-icmp6.o)
 .debug_loc     0x0000000000016fc1      0x499 build/native/contiki-ng-native.a(rpl-dag-root.o)
 .debug_loc     0x000000000001745a      0xc69 build/native/contiki-ng-native.a(tun-bridge.o)
 .debug_loc     0x00000000000180c3     0x11a1 build/native/contiki-ng-native.a(slip-dev.o)
 .debug_loc     0x0000000000019264      0x7a3 build/native/contiki-ng-native.a(slip-config.o)
 .debug_loc     0x0000000000019a07      0x5aa build/native/contiki-ng-native.a(border-router-m)
 .debug_loc     0x0000000000019fb1      0xabb build/native/contiki-ng-native.a(border-router-c)
 .debug_loc     0x000000000001aa6c      0x1de build/native/contiki-ng-native.a(cmd.o)
 .debug_loc     0x000000000001ac4a      0x4d9 build/native/contiki-ng-native.a(packetutils.o)
 .debug_loc     0x000000000001b123      0x7ec build/native/contiki-ng-native.a(shell.o)
 .debug_loc     0x000000000001b90f     0x4486 build/native/contiki-ng-native.a(shell-commands.)
 .debug_loc     0x000000000001fd95      0x2d1 build/native/contiki-ng-native.a(serial-shell.o)
 .debug_loc     0x0000000000020066      0x70c build/native/contiki-ng-native.a(platform.o)
 .debug_loc     0x0000000000020772      0x14c build/native/contiki-ng-native.a(clock.o)
 .debug_loc     0x00000000000208be       0xf3 build/native/contiki-ng-native.a(rtimer-arch.o)
 .debug_loc     0x00000000000209b1      0x888 build/native/contiki-ng-native.a(httpd-simple.o)
 .debug_loc     0x0000000000021239      0x153 build/native/contiki-ng-native.a(rpl-border-rout)
 .debug_loc     0x000000000002138c      0x24e build/native/contiki-ng-native.a(stimer.o)
 .debug_loc     0x00000000000215da      0x394 build/native/contiki-ng-native.a(memb.o)
 .debug_loc     0x000000000002196e       0x3d build/native/contiki-ng-native.a(random.o)
 .debug_loc     0x00000000000219ab      0x794 build/native/contiki-ng-native.a(button-hal.o)
 .debug_loc     0x000000000002213f      0x38b build/native/contiki-ng-native.a(serial-line.o)
 .debug_loc     0x00000000000224ca      0x2f4 build/native/contiki-ng-native.a(gpio-hal.o)
 .debug_loc     0x00000000000227be     0x1f86 build/native/contiki-ng-native.a(nbr-table.o)
 .debug_loc     0x0000000000024744      0x955 build/native/contiki-ng-native.a(link-stats.o)
 .debug_loc     0x0000000000025099      0x187 build/native/contiki-ng-native.a(mac.o)
 .debug_loc     0x0000000000025220      0x3c2 build/native/contiki-ng-native.a(framer-802154.o)
 .debug_loc     0x00000000000255e2     0x1221 build/native/contiki-ng-native.a(frame802154.o)
 .debug_loc     0x0000000000026803      0x8ca build/native/contiki-ng-native.a(uipbuf.o)
 .debug_loc     0x00000000000270cd      0x7bd build/native/contiki-ng-native.a(uip-icmp6.o)
 .debug_loc     0x000000000002788a      0x1c4 build/native/contiki-ng-native.a(uip-packetqueue)
 .debug_loc     0x0000000000027a4e      0x31e build/native/contiki-ng-native.a(uip-udp-packet.)
 .debug_loc     0x0000000000027d6c      0x2cb build/native/contiki-ng-native.a(rpl-nbr-policy.)
 .debug_loc     0x0000000000028037     0x122e build/native/contiki-ng-native.a(rpl-neighbor.o)
 .debug_loc     0x0000000000029265     0x126e build/native/contiki-ng-native.a(rpl-dag.o)
 .debug_loc     0x000000000002a4d3      0x8ca build/native/contiki-ng-native.a(rpl-timers.o)
 .debug_loc     0x000000000002ad9d     0x181f build/native/contiki-ng-native.a(rpl-ext-header.)
 .debug_loc     0x000000000002c5bc      0x9a6 build/native/contiki-ng-native.a(rpl-mrhof.o)
 .debug_loc     0x000000000002cf62      0x4a5 build/native/contiki-ng-native.a(border-router-n)
 .debug_loc     0x000000000002d407       0x25 build/native/contiki-ng-native.a(int-master.o)
 .debug_loc     0x000000000002d42c      0x2da build/native/contiki-ng-native.a(gpio-hal-arch.o)
 .debug_loc     0x000000000002d706       0x62 build/native/contiki-ng-native.a(ringbuf.o)

.debug_macinfo
 *(.debug_macinfo)

.debug_weaknames
 *(.debug_weaknames)

.debug_funcnames
 *(.debug_funcnames)

.debug_typenames
 *(.debug_typenames)

.debug_varnames
 *(.debug_varnames)

.debug_pubtypes
 *(.debug_pubtypes)

.debug_ranges   0x0000000000000000     0x7240
 *(.debug_ranges)
 .debug_ranges  0x0000000000000000       0x80 border-router.o
 .debug_ranges  0x0000000000000080      0x460 build/native/contiki-ng-native.a(webserver.o)
 .debug_ranges  0x00000000000004e0       0x90 build/native/contiki-ng-native.a(contiki-main.o)
 .debug_ranges  0x0000000000000570       0x60 build/native/contiki-ng-native.a(ctimer.o)
 .debug_ranges  0x00000000000005d0      0x150 build/native/contiki-ng-native.a(log.o)
 .debug_ranges  0x0000000000000720      0x180 build/native/contiki-ng-native.a(etimer.o)
 .debug_ranges  0x00000000000008a0      0x120 build/native/contiki-ng-native.a(process.o)
 .debug_ranges  0x00000000000009c0      0x120 build/native/contiki-ng-native.a(list.o)
 .debug_ranges  0x0000000000000ae0       0x70 build/native/contiki-ng-native.a(queuebuf.o)
 .debug_ranges  0x0000000000000b50      0x310 build/native/contiki-ng-native.a(packetbuf.o)
 .debug_ranges  0x0000000000000e60       0x30 build/native/contiki-ng-native.a(linkaddr.o)
 .debug_ranges  0x0000000000000e90       0xf0 build/native/contiki-ng-native.a(uip-sr.o)
 .debug_ranges  0x0000000000000f80      0x330 build/native/contiki-ng-native.a(uip-ds6.o)
 .debug_ranges  0x00000000000012b0       0x30 build/native/contiki-ng-native.a(uip-ds6-route.o)
 .debug_ranges  0x00000000000012e0      0x3f0 build/native/contiki-ng-native.a(psock.o)
 .debug_ranges  0x00000000000016d0      0x280 build/native/contiki-ng-native.a(tcpip.o)
 .debug_ranges  0x0000000000001950      0x230 build/native/contiki-ng-native.a(uip6.o)
 .debug_ranges  0x0000000000001b80       0xc0 build/native/contiki-ng-native.a(uip-ds6-nbr.o)
 .debug_ranges  0x0000000000001c40      0x1a0 build/native/contiki-ng-native.a(uip-nd6.o)
 .debug_ranges  0x0000000000001de0      0x130 build/native/contiki-ng-native.a(simple-udp.o)
 .debug_ranges  0x0000000000001f10      0xb50 build/native/contiki-ng-native.a(sicslowpan.o)
 .debug_ranges  0x0000000000002a60      0x200 build/native/contiki-ng-native.a(uiplib.o)
 .debug_ranges  0x0000000000002c60      0x230 build/native/contiki-ng-native.a(rpl.o)
 .debug_ranges  0x0000000000002e90      0x760 build/native/contiki-ng-native.a(rpl-icmp6.o)
 .debug_ranges  0x00000000000035f0       0x40 build/native/contiki-ng-native.a(rpl-dag-root.o)
 .debug_ranges  0x0000000000003630      0x290 build/native/contiki-ng-native.a(tun-bridge.o)
 .debug_ranges  0x00000000000038c0      0x3c0 build/native/contiki-ng-native.a(slip-dev.o)
 .debug_ranges  0x0000000000003c80       0x30 build/native/contiki-ng-native.a(slip-config.o)
 .debug_ranges  0x0000000000003cb0      0x150 build/native/contiki-ng-native.a(border-router-m)
 .debug_ranges  0x0000000000003e00      0x1f0 build/native/contiki-ng-native.a(border-router-c)
 .debug_ranges  0x0000000000003ff0      0x250 build/native/contiki-ng-native.a(shell.o)
 .debug_ranges  0x0000000000004240     0x1100 build/native/contiki-ng-native.a(shell-commands.)
 .debug_ranges  0x0000000000005340       0xd0 build/native/contiki-ng-native.a(serial-shell.o)
 .debug_ranges  0x0000000000005410      0x180 build/native/contiki-ng-native.a(platform.o)
 .debug_ranges  0x0000000000005590       0x60 build/native/contiki-ng-native.a(clock.o)
 .debug_ranges  0x00000000000055f0      0x280 build/native/contiki-ng-native.a(httpd-simple.o)
 .debug_ranges  0x0000000000005870       0x80 build/native/contiki-ng-native.a(rpl-border-rout)
 .debug_ranges  0x00000000000058f0       0x30 build/native/contiki-ng-native.a(stimer.o)
 .debug_ranges  0x0000000000005920       0x70 build/native/contiki-ng-native.a(memb.o)
 .debug_ranges  0x0000000000005990      0x130 build/native/contiki-ng-native.a(button-hal.o)
 .debug_ranges  0x0000000000005ac0       0xf0 build/native/contiki-ng-native.a(serial-line.o)
 .debug_ranges  0x0000000000005bb0      0x6f0 build/native/contiki-ng-native.a(nbr-table.o)
 .debug_ranges  0x00000000000062a0       0xc0 build/native/contiki-ng-native.a(link-stats.o)
 .debug_ranges  0x0000000000006360       0x40 build/native/contiki-ng-native.a(framer-802154.o)
 .debug_ranges  0x00000000000063a0       0x60 build/native/contiki-ng-native.a(frame802154.o)
 .debug_ranges  0x0000000000006400       0x60 build/native/contiki-ng-native.a(uipbuf.o)
 .debug_ranges  0x0000000000006460       0xf0 build/native/contiki-ng-native.a(uip-icmp6.o)
 .debug_ranges  0x0000000000006550       0x50 build/native/contiki-ng-native.a(uip-udp-packet.)
 .debug_ranges  0x00000000000065a0       0x20 build/native/contiki-ng-native.a(rpl-nbr-policy.)
 .debug_ranges  0x00000000000065c0      0x390 build/native/contiki-ng-native.a(rpl-neighbor.o)
 .debug_ranges  0x0000000000006950      0x230 build/native/contiki-ng-native.a(rpl-dag.o)
 .debug_ranges  0x0000000000006b80      0x200 build/native/contiki-ng-native.a(rpl-timers.o)
 .debug_ranges  0x0000000000006d80      0x2f0 build/native/contiki-ng-native.a(rpl-ext-header.)
 .debug_ranges  0x0000000000007070       0xd0 build/native/contiki-ng-native.a(rpl-mrhof.o)
 .debug_ranges  0x0000000000007140      0x100 build/native/contiki-ng-native.a(border-router-n)

.debug_macro
 *(.debug_macro)

.debug_addr
 *(.debug_addr)

.gnu.attributes
 *(.gnu.attributes)

/DISCARD/
 *(.note.GNU-stack)
 *(.gnu_debuglink)
 *(.gnu.lto_*)
OUTPUT(build/native/border-router.native elf64-x86-64)
